ARM GAS  C:\Users\lenovo\AppData\Local\Temp\ccC9RAqD.s 			page 1


   1              		.cpu cortex-m4
   2              		.arch armv7e-m
   3              		.fpu fpv4-sp-d16
   4              		.eabi_attribute 27, 1
   5              		.eabi_attribute 28, 1
   6              		.eabi_attribute 20, 1
   7              		.eabi_attribute 21, 1
   8              		.eabi_attribute 23, 3
   9              		.eabi_attribute 24, 1
  10              		.eabi_attribute 25, 1
  11              		.eabi_attribute 26, 1
  12              		.eabi_attribute 30, 1
  13              		.eabi_attribute 34, 1
  14              		.eabi_attribute 18, 4
  15              		.file	"main.c"
  16              		.text
  17              	.Ltext0:
  18              		.cfi_sections	.debug_frame
  19              		.global	__aeabi_dmul
  20              		.global	__aeabi_dadd
  21              		.section	.text.rc_norm,"ax",%progbits
  22              		.align	1
  23              		.global	rc_norm
  24              		.syntax unified
  25              		.thumb
  26              		.thumb_func
  28              	rc_norm:
  29              	.LVL0:
  30              	.LFB135:
  31              		.file 1 "Core/Src/main.c"
   1:Core/Src/main.c **** /* USER CODE BEGIN Header */
   2:Core/Src/main.c **** /**
   3:Core/Src/main.c ****  ******************************************************************************
   4:Core/Src/main.c ****  * @file           : main.c
   5:Core/Src/main.c ****  * @brief          : Main program body
   6:Core/Src/main.c ****  ******************************************************************************
   7:Core/Src/main.c ****  * @attention
   8:Core/Src/main.c ****  *
   9:Core/Src/main.c ****  * <h2><center>&copy; Copyright (c) 2021 STMicroelectronics.
  10:Core/Src/main.c ****  * All rights reserved.</center></h2>
  11:Core/Src/main.c ****  *
  12:Core/Src/main.c ****  * This software component is licensed by ST under BSD 3-Clause license,
  13:Core/Src/main.c ****  * the "License"; You may not use this file except in compliance with the
  14:Core/Src/main.c ****  * License. You may obtain a copy of the License at:
  15:Core/Src/main.c ****  *                        opensource.org/licenses/BSD-3-Clause
  16:Core/Src/main.c ****  *
  17:Core/Src/main.c ****  ******************************************************************************
  18:Core/Src/main.c ****  */
  19:Core/Src/main.c **** /* USER CODE END Header */
  20:Core/Src/main.c **** /* Includes ------------------------------------------------------------------*/
  21:Core/Src/main.c **** #include "main.h"
  22:Core/Src/main.c **** #include "can.h"
  23:Core/Src/main.c **** #include "gpio.h"
  24:Core/Src/main.c **** #include "i2c.h"
  25:Core/Src/main.c **** #include "pid_control_tuning.h"
  26:Core/Src/main.c **** #include "usart.h"
  27:Core/Src/main.c **** #include "usb_device.h"
ARM GAS  C:\Users\lenovo\AppData\Local\Temp\ccC9RAqD.s 			page 2


  28:Core/Src/main.c **** 
  29:Core/Src/main.c **** /* Private includes ----------------------------------------------------------*/
  30:Core/Src/main.c **** /* USER CODE BEGIN Includes */
  31:Core/Src/main.c **** #include "bsp_can.h"
  32:Core/Src/main.c **** #include "com.h"
  33:Core/Src/main.c **** #include "package.h"
  34:Core/Src/main.c **** #include "pid.h"
  35:Core/Src/main.c **** #include "math.h"
  36:Core/Src/main.c **** #include "usbd_cdc_if.h"
  37:Core/Src/main.c **** #include <stdio.h>
  38:Core/Src/main.c **** #include <string.h>
  39:Core/Src/main.c **** 
  40:Core/Src/main.c **** /* USER CODE END Includes */
  41:Core/Src/main.c **** 
  42:Core/Src/main.c **** /* Private typedef -----------------------------------------------------------*/
  43:Core/Src/main.c **** /* USER CODE BEGIN PTD */
  44:Core/Src/main.c **** #define printf(...) cprintf(&huart1, __VA_ARGS__)
  45:Core/Src/main.c **** /* USER CODE END PTD */
  46:Core/Src/main.c **** 
  47:Core/Src/main.c **** /* Private define ------------------------------------------------------------*/
  48:Core/Src/main.c **** /* USER CODE BEGIN PD */
  49:Core/Src/main.c **** /* USER CODE END PD */
  50:Core/Src/main.c **** 
  51:Core/Src/main.c **** /* Private macro -------------------------------------------------------------*/
  52:Core/Src/main.c **** /* USER CODE BEGIN PM */
  53:Core/Src/main.c **** 
  54:Core/Src/main.c **** /* USER CODE END PM */
  55:Core/Src/main.c **** 
  56:Core/Src/main.c **** /* Private variables ---------------------------------------------------------*/
  57:Core/Src/main.c **** 
  58:Core/Src/main.c **** /* USER CODE BEGIN PV */
  59:Core/Src/main.c **** typedef struct Vec3d {
  60:Core/Src/main.c ****     double x, y, z;
  61:Core/Src/main.c **** } Vec3d;
  62:Core/Src/main.c **** /* USER CODE END PV */
  63:Core/Src/main.c **** 
  64:Core/Src/main.c **** /* Private function prototypes -----------------------------------------------*/
  65:Core/Src/main.c **** void SystemClock_Config(void);
  66:Core/Src/main.c **** /* USER CODE BEGIN PFP */
  67:Core/Src/main.c **** /* USER CODE END PFP */
  68:Core/Src/main.c **** 
  69:Core/Src/main.c **** /* Private user code ---------------------------------------------------------*/
  70:Core/Src/main.c **** /* USER CODE BEGIN 0 */
  71:Core/Src/main.c **** uint8_t ReceiveBuffer[6] = {0}; // IIC接收缓冲区
  72:Core/Src/main.c **** char buf_r[256] = {0};
  73:Core/Src/main.c **** 
  74:Core/Src/main.c **** double rc_norm(const Vec3d *r) {
  32              		.loc 1 74 32 view -0
  33              		.cfi_startproc
  34              		@ args = 0, pretend = 0, frame = 0
  35              		@ frame_needed = 0, uses_anonymous_args = 0
  36              		.loc 1 74 32 is_stmt 0 view .LVU1
  37 0000 D0B5     		push	{r4, r6, r7, lr}
  38              	.LCFI0:
  39              		.cfi_def_cfa_offset 16
  40              		.cfi_offset 4, -16
  41              		.cfi_offset 6, -12
ARM GAS  C:\Users\lenovo\AppData\Local\Temp\ccC9RAqD.s 			page 3


  42              		.cfi_offset 7, -8
  43              		.cfi_offset 14, -4
  44 0002 0446     		mov	r4, r0
  75:Core/Src/main.c ****     double ans = (r -> x * r -> x) + (r -> y * r -> y) + (r -> z * r -> z);
  45              		.loc 1 75 5 is_stmt 1 view .LVU2
  46              		.loc 1 75 21 is_stmt 0 view .LVU3
  47 0004 D0E90001 		ldrd	r0, [r0]
  48              	.LVL1:
  49              		.loc 1 75 26 view .LVU4
  50 0008 0246     		mov	r2, r0
  51 000a 0B46     		mov	r3, r1
  52 000c FFF7FEFF 		bl	__aeabi_dmul
  53              	.LVL2:
  54 0010 0646     		mov	r6, r0
  55 0012 0F46     		mov	r7, r1
  56              		.loc 1 75 41 view .LVU5
  57 0014 D4E90201 		ldrd	r0, [r4, #8]
  58              		.loc 1 75 46 view .LVU6
  59 0018 0246     		mov	r2, r0
  60 001a 0B46     		mov	r3, r1
  61 001c FFF7FEFF 		bl	__aeabi_dmul
  62              	.LVL3:
  63 0020 0246     		mov	r2, r0
  64 0022 0B46     		mov	r3, r1
  65              		.loc 1 75 36 view .LVU7
  66 0024 3046     		mov	r0, r6
  67 0026 3946     		mov	r1, r7
  68 0028 FFF7FEFF 		bl	__aeabi_dadd
  69              	.LVL4:
  70 002c 0646     		mov	r6, r0
  71 002e 0F46     		mov	r7, r1
  72              		.loc 1 75 61 view .LVU8
  73 0030 D4E90401 		ldrd	r0, [r4, #16]
  74              		.loc 1 75 66 view .LVU9
  75 0034 0246     		mov	r2, r0
  76 0036 0B46     		mov	r3, r1
  77 0038 FFF7FEFF 		bl	__aeabi_dmul
  78              	.LVL5:
  79 003c 0246     		mov	r2, r0
  80 003e 0B46     		mov	r3, r1
  81              		.loc 1 75 12 view .LVU10
  82 0040 3046     		mov	r0, r6
  83 0042 3946     		mov	r1, r7
  84 0044 FFF7FEFF 		bl	__aeabi_dadd
  85              	.LVL6:
  76:Core/Src/main.c ****     return sqrt(ans);
  86              		.loc 1 76 5 is_stmt 1 view .LVU11
  87              		.loc 1 76 12 is_stmt 0 view .LVU12
  88 0048 41EC100B 		vmov	d0, r0, r1
  89 004c FFF7FEFF 		bl	sqrt
  90              	.LVL7:
  77:Core/Src/main.c **** }
  91              		.loc 1 77 1 view .LVU13
  92 0050 D0BD     		pop	{r4, r6, r7, pc}
  93              		.loc 1 77 1 view .LVU14
  94              		.cfi_endproc
  95              	.LFE135:
ARM GAS  C:\Users\lenovo\AppData\Local\Temp\ccC9RAqD.s 			page 4


  97              		.section	.text.rc_mul,"ax",%progbits
  98              		.align	1
  99              		.global	rc_mul
 100              		.syntax unified
 101              		.thumb
 102              		.thumb_func
 104              	rc_mul:
 105              	.LVL8:
 106              	.LFB136:
  78:Core/Src/main.c **** 
  79:Core/Src/main.c **** void rc_mul(const double a, const Vec3d *b, Vec3d *ans) {
 107              		.loc 1 79 57 is_stmt 1 view -0
 108              		.cfi_startproc
 109              		@ args = 0, pretend = 0, frame = 0
 110              		@ frame_needed = 0, uses_anonymous_args = 0
 111              		.loc 1 79 57 is_stmt 0 view .LVU16
 112 0000 F8B5     		push	{r3, r4, r5, r6, r7, lr}
 113              	.LCFI1:
 114              		.cfi_def_cfa_offset 24
 115              		.cfi_offset 3, -24
 116              		.cfi_offset 4, -20
 117              		.cfi_offset 5, -16
 118              		.cfi_offset 6, -12
 119              		.cfi_offset 7, -8
 120              		.cfi_offset 14, -4
 121 0002 57EC106B 		vmov	r6, r7, d0
 122 0006 0546     		mov	r5, r0
 123 0008 0C46     		mov	r4, r1
  80:Core/Src/main.c ****     ans -> x = a * b -> x;
 124              		.loc 1 80 5 is_stmt 1 view .LVU17
 125              		.loc 1 80 18 is_stmt 0 view .LVU18
 126 000a 10EE102A 		vmov	r2, s0	@ int
 127 000e 3B46     		mov	r3, r7
 128 0010 D0E90001 		ldrd	r0, [r0]
 129              	.LVL9:
 130              		.loc 1 80 18 view .LVU19
 131 0014 FFF7FEFF 		bl	__aeabi_dmul
 132              	.LVL10:
 133              		.loc 1 80 14 view .LVU20
 134 0018 C4E90001 		strd	r0, [r4]
  81:Core/Src/main.c ****     ans -> y = a * b -> y;
 135              		.loc 1 81 5 is_stmt 1 view .LVU21
 136              		.loc 1 81 18 is_stmt 0 view .LVU22
 137 001c 3246     		mov	r2, r6
 138 001e 3B46     		mov	r3, r7
 139 0020 D5E90201 		ldrd	r0, [r5, #8]
 140 0024 FFF7FEFF 		bl	__aeabi_dmul
 141              	.LVL11:
 142              		.loc 1 81 14 view .LVU23
 143 0028 C4E90201 		strd	r0, [r4, #8]
  82:Core/Src/main.c ****     ans -> z = a * b -> z;
 144              		.loc 1 82 5 is_stmt 1 view .LVU24
 145              		.loc 1 82 18 is_stmt 0 view .LVU25
 146 002c 3246     		mov	r2, r6
 147 002e 3B46     		mov	r3, r7
 148 0030 D5E90401 		ldrd	r0, [r5, #16]
 149 0034 FFF7FEFF 		bl	__aeabi_dmul
ARM GAS  C:\Users\lenovo\AppData\Local\Temp\ccC9RAqD.s 			page 5


 150              	.LVL12:
 151              		.loc 1 82 14 view .LVU26
 152 0038 C4E90401 		strd	r0, [r4, #16]
  83:Core/Src/main.c **** }
 153              		.loc 1 83 1 view .LVU27
 154 003c F8BD     		pop	{r3, r4, r5, r6, r7, pc}
 155              		.loc 1 83 1 view .LVU28
 156              		.cfi_endproc
 157              	.LFE136:
 159              		.section	.text.fputc,"ax",%progbits
 160              		.align	1
 161              		.global	fputc
 162              		.syntax unified
 163              		.thumb
 164              		.thumb_func
 166              	fputc:
 167              	.LVL13:
 168              	.LFB139:
  84:Core/Src/main.c **** 
  85:Core/Src/main.c **** /* USER CODE END 0 */
  86:Core/Src/main.c **** 
  87:Core/Src/main.c **** /**
  88:Core/Src/main.c ****  * @brief  The application entry point.
  89:Core/Src/main.c ****  * @retval int
  90:Core/Src/main.c ****  */
  91:Core/Src/main.c **** int main(void) {
  92:Core/Src/main.c ****   /* USER CODE BEGIN 1 */
  93:Core/Src/main.c ****   /* USER CODE END 1 */
  94:Core/Src/main.c **** 
  95:Core/Src/main.c ****   /* MCU Configuration--------------------------------------------------------*/
  96:Core/Src/main.c **** 
  97:Core/Src/main.c ****   /* Reset of all peripherals, Initializes the Flash interface and the Systick.
  98:Core/Src/main.c ****    */
  99:Core/Src/main.c ****   HAL_Init();
 100:Core/Src/main.c **** 
 101:Core/Src/main.c ****   /* USER CODE BEGIN Init */
 102:Core/Src/main.c **** 
 103:Core/Src/main.c ****   /* USER CODE END Init */
 104:Core/Src/main.c **** 
 105:Core/Src/main.c ****   /* Configure the system clock */
 106:Core/Src/main.c ****   SystemClock_Config();
 107:Core/Src/main.c **** 
 108:Core/Src/main.c ****   /* USER CODE BEGIN SysInit */
 109:Core/Src/main.c **** 
 110:Core/Src/main.c ****   /* USER CODE END SysInit */
 111:Core/Src/main.c **** 
 112:Core/Src/main.c ****   /* Initialize all configured peripherals */
 113:Core/Src/main.c ****   MX_GPIO_Init();
 114:Core/Src/main.c ****   MX_CAN1_Init();
 115:Core/Src/main.c ****   MX_I2C2_Init();
 116:Core/Src/main.c ****   MX_USART1_UART_Init();
 117:Core/Src/main.c ****   MX_USB_DEVICE_Init();
 118:Core/Src/main.c ****   MX_USB_DEVICE_Init();
 119:Core/Src/main.c ****   /* USER CODE BEGIN 2 */
 120:Core/Src/main.c **** 
 121:Core/Src/main.c ****   HAL_CAN_Start(&hcan1);
 122:Core/Src/main.c ****   my_can_filter_init_recv_all(&hcan1);
ARM GAS  C:\Users\lenovo\AppData\Local\Temp\ccC9RAqD.s 			page 6


 123:Core/Src/main.c ****   HAL_CAN_ActivateNotification(&hcan1,
 124:Core/Src/main.c ****                                CAN_IT_RX_FIFO0_MSG_PENDING); // enable IT
 125:Core/Src/main.c **** 
 126:Core/Src/main.c ****   /* USER CODE END 2 */
 127:Core/Src/main.c **** 
 128:Core/Src/main.c ****   /* Infinite loop */
 129:Core/Src/main.c ****   /* USER CODE BEGIN WHILE */
 130:Core/Src/main.c ****   // YAW轴PID
 131:Core/Src/main.c ****   pid_init(&motor_pid[0]); // 速度环
 132:Core/Src/main.c ****   motor_pid[0].f_param_init(&motor_pid[0], PID_Speed, CURRENT_LIMIT, 5000, 0, 0,
 133:Core/Src/main.c ****                             0, 8000, 61.4656753, 0.6697404, 0);
 134:Core/Src/main.c ****   pid_init(&angle_pid[0]); // 位置环（相对位置）
 135:Core/Src/main.c ****   angle_pid[0].f_param_init(&angle_pid[0], PID_Speed, 300, 300, 0, 0, 4000, 0,
 136:Core/Src/main.c ****                             1.3713, 0.00495369, 94.8474 * 0);
 137:Core/Src/main.c ****   pid_init(&abs_pid[0]); // 位置环（自稳）
 138:Core/Src/main.c ****   abs_pid[0].f_param_init(&abs_pid[0], PID_Speed, 300, 300, 0, 0, 4000, 0, -0.9,
 139:Core/Src/main.c ****                           -0.003, -3);
 140:Core/Src/main.c **** 
 141:Core/Src/main.c ****   // Pitch轴PID
 142:Core/Src/main.c ****   pid_init(&motor_pid[1]); // 速度环
 143:Core/Src/main.c ****   motor_pid[1].f_param_init(&motor_pid[1], PID_Speed, CURRENT_LIMIT, 5000, 0, 0,
 144:Core/Src/main.c ****                             0, 8000, 4.01239768, 3.0348503, 0);
 145:Core/Src/main.c ****   pid_init(&angle_pid[1]); // 位置环（相对位置）
 146:Core/Src/main.c ****   angle_pid[1].f_param_init(&angle_pid[1], PID_Speed, 500, 500, 0, 0, 4000, 0,
 147:Core/Src/main.c ****                             1.27137, 0.01084, 27.877753 * 0.4);
 148:Core/Src/main.c ****   pid_init(&abs_pid[1]); // 位置环（自稳）
 149:Core/Src/main.c ****   abs_pid[1].f_param_init(&abs_pid[1], PID_Speed, 300, 300, 0, 0, 4000, 0, 0.5,
 150:Core/Src/main.c ****                           0, 10);
 151:Core/Src/main.c **** 
 152:Core/Src/main.c ****   printf("--------------init--------------\n");
 153:Core/Src/main.c ****   HAL_I2C_Slave_Receive_IT(&hi2c2, ReceiveBuffer, sizeof(ReceiveBuffer));
 154:Core/Src/main.c **** 
 155:Core/Src/main.c ****   SendPacket sp;
 156:Core/Src/main.c ****   sp.header = 0x5a;
 157:Core/Src/main.c ****   sp.detect_color = 1;
 158:Core/Src/main.c ****   sp.reset_tracker = 0;
 159:Core/Src/main.c ****   sp.checksum = 0;
 160:Core/Src/main.c ****   ReceivePacket rp = {0};
 161:Core/Src/main.c ****   uint32_t size = SEND_PKG_SIZE;
 162:Core/Src/main.c **** 	Vec3d aim_pos = {0};
 163:Core/Src/main.c **** 	float yaw,pitch;
 164:Core/Src/main.c **** 	int nan_f = 0;
 165:Core/Src/main.c **** 
 166:Core/Src/main.c ****   while (1) {
 167:Core/Src/main.c ****     /* USER CODE END WHILE */
 168:Core/Src/main.c **** 
 169:Core/Src/main.c ****     /* USER CODE BEGIN 3 */
 170:Core/Src/main.c ****     USBD_Interface_fops_FS.Receive((uint8_t *)buf_r, &size);
 171:Core/Src/main.c ****     fromVector((uint8_t *)buf_r, &rp);
 172:Core/Src/main.c **** 		aim_pos.x = rp.x;
 173:Core/Src/main.c **** 		aim_pos.y = rp.y; 
 174:Core/Src/main.c **** 		aim_pos.z = rp.z;
 175:Core/Src/main.c **** 		float l = rc_norm(&aim_pos);
 176:Core/Src/main.c **** 
 177:Core/Src/main.c **** 		yaw = atan(aim_pos.y/aim_pos.x);//偏航角
 178:Core/Src/main.c **** 		pitch = asin(aim_pos.z/l);//俯仰角
 179:Core/Src/main.c ****     float x = 1.0;
ARM GAS  C:\Users\lenovo\AppData\Local\Temp\ccC9RAqD.s 			page 7


 180:Core/Src/main.c ****     //printf("%d/1000\n", (int)x*1000);
 181:Core/Src/main.c ****     
 182:Core/Src/main.c ****     printf("aim_x:%d/1000, aim_y:%d/1000, aim_z:%d/1000, yaw:%d/1000, pitch:%d/1000 \n", 
 183:Core/Src/main.c ****                    (int)aim_pos.x*1000, (int)aim_pos.y*1000, (int)aim_pos.z*1000, (int)yaw*1000, (i
 184:Core/Src/main.c **** 
 185:Core/Src/main.c **** 		sp.yaw = M_PI * (-IMU_Angle[2]+90)/180;
 186:Core/Src/main.c **** 		sp.pitch = M_PI * (-IMU_Angle[0] + 180)/180;
 187:Core/Src/main.c **** 		sp.roll = M_PI * IMU_Angle[1]/180;
 188:Core/Src/main.c ****     CDC_Transmit_FS((uint8_t *)&sp, sizeof(struct SendPacket));
 189:Core/Src/main.c **** 
 190:Core/Src/main.c **** 		//printf("yaw: %d/1000\n",(int)(yaw*1000));
 191:Core/Src/main.c **** 		//printf("ok\n");
 192:Core/Src/main.c ****     //if(isnan(yaw)){
 193:Core/Src/main.c **** 				//printf("NANANANAN\n");
 194:Core/Src/main.c **** 		//}
 195:Core/Src/main.c **** 		if(ABS_Gimbal_angle[0] >= 8191)
 196:Core/Src/main.c **** 				ABS_Gimbal_angle[0] = 0;
 197:Core/Src/main.c **** 		else if(ABS_Gimbal_angle <= 0)
 198:Core/Src/main.c **** 				ABS_Gimbal_angle[0] = 8191;
 199:Core/Src/main.c **** 		else if(isnan(ABS_Gimbal_angle[0]) && nan_f == 0){
 200:Core/Src/main.c **** 				nan_f = 1;
 201:Core/Src/main.c **** 				ABS_Gimbal_angle[0] = 7500;
 202:Core/Src/main.c **** 		} else nan_f =0;
 203:Core/Src/main.c **** 
 204:Core/Src/main.c **** 		if(nan_f == 1){
 205:Core/Src/main.c **** 				//ABS_Gimbal_angle[0]= yaw /(2*M_PI) *8192;
 206:Core/Src/main.c **** 		}
 207:Core/Src/main.c **** 
 208:Core/Src/main.c **** 		//ABS_Gimbal_angle[0] -= (yaw+0.21);
 209:Core/Src/main.c **** 				/**ABS_Gimbal_angle[0] += ((yaw+0.21) * 100);*/
 210:Core/Src/main.c **** 				/**ABS_Gimbal_angle[1] -=  pitch * 10;*/
 211:Core/Src/main.c **** 
 212:Core/Src/main.c ****   Abs_angle_control_loop();
 213:Core/Src/main.c **** 
 214:Core/Src/main.c ****     /*Debug*/
 215:Core/Src/main.c ****     if (false) {
 216:Core/Src/main.c ****       HAL_GPIO_TogglePin(LED_GPIO_Port, LED_Pin);
 217:Core/Src/main.c ****       HAL_Delay(100);
 218:Core/Src/main.c ****     }
 219:Core/Src/main.c ****     i++;
 220:Core/Src/main.c ****     j++;
 221:Core/Src/main.c ****   }
 222:Core/Src/main.c ****   /* USER CODE END 3 */
 223:Core/Src/main.c **** }
 224:Core/Src/main.c **** 
 225:Core/Src/main.c **** /**
 226:Core/Src/main.c ****  * @brief System Clock Configuration
 227:Core/Src/main.c ****  * @retval None
 228:Core/Src/main.c ****  */
 229:Core/Src/main.c **** void SystemClock_Config(void) {
 230:Core/Src/main.c ****   RCC_OscInitTypeDef RCC_OscInitStruct = {0};
 231:Core/Src/main.c ****   RCC_ClkInitTypeDef RCC_ClkInitStruct = {0};
 232:Core/Src/main.c **** 
 233:Core/Src/main.c ****   /** Configure the main internal regulator output voltage
 234:Core/Src/main.c ****    */
 235:Core/Src/main.c ****   __HAL_RCC_PWR_CLK_ENABLE();
 236:Core/Src/main.c ****   __HAL_PWR_VOLTAGESCALING_CONFIG(PWR_REGULATOR_VOLTAGE_SCALE1);
ARM GAS  C:\Users\lenovo\AppData\Local\Temp\ccC9RAqD.s 			page 8


 237:Core/Src/main.c **** 
 238:Core/Src/main.c ****   /** Initializes the RCC Oscillators according to the specified parameters
 239:Core/Src/main.c ****    * in the RCC_OscInitTypeDef structure.
 240:Core/Src/main.c ****    */
 241:Core/Src/main.c ****   RCC_OscInitStruct.OscillatorType = RCC_OSCILLATORTYPE_HSE;
 242:Core/Src/main.c ****   RCC_OscInitStruct.HSEState = RCC_HSE_ON;
 243:Core/Src/main.c ****   RCC_OscInitStruct.PLL.PLLState = RCC_PLL_ON;
 244:Core/Src/main.c ****   RCC_OscInitStruct.PLL.PLLSource = RCC_PLLSOURCE_HSE;
 245:Core/Src/main.c ****   RCC_OscInitStruct.PLL.PLLM = 6;
 246:Core/Src/main.c ****   RCC_OscInitStruct.PLL.PLLN = 168;
 247:Core/Src/main.c ****   RCC_OscInitStruct.PLL.PLLP = RCC_PLLP_DIV2;
 248:Core/Src/main.c ****   RCC_OscInitStruct.PLL.PLLQ = 7;
 249:Core/Src/main.c ****   if (HAL_RCC_OscConfig(&RCC_OscInitStruct) != HAL_OK) {
 250:Core/Src/main.c ****     Error_Handler();
 251:Core/Src/main.c ****   }
 252:Core/Src/main.c **** 
 253:Core/Src/main.c ****   /** Initializes the CPU, AHB and APB buses clocks
 254:Core/Src/main.c ****    */
 255:Core/Src/main.c ****   RCC_ClkInitStruct.ClockType = RCC_CLOCKTYPE_HCLK | RCC_CLOCKTYPE_SYSCLK |
 256:Core/Src/main.c ****                                 RCC_CLOCKTYPE_PCLK1 | RCC_CLOCKTYPE_PCLK2;
 257:Core/Src/main.c ****   RCC_ClkInitStruct.SYSCLKSource = RCC_SYSCLKSOURCE_PLLCLK;
 258:Core/Src/main.c ****   RCC_ClkInitStruct.AHBCLKDivider = RCC_SYSCLK_DIV1;
 259:Core/Src/main.c ****   RCC_ClkInitStruct.APB1CLKDivider = RCC_HCLK_DIV4;
 260:Core/Src/main.c ****   RCC_ClkInitStruct.APB2CLKDivider = RCC_HCLK_DIV2;
 261:Core/Src/main.c **** 
 262:Core/Src/main.c ****   if (HAL_RCC_ClockConfig(&RCC_ClkInitStruct, FLASH_LATENCY_5) != HAL_OK) {
 263:Core/Src/main.c ****     Error_Handler();
 264:Core/Src/main.c ****   }
 265:Core/Src/main.c **** }
 266:Core/Src/main.c **** 
 267:Core/Src/main.c **** /* USER CODE BEGIN 4 */
 268:Core/Src/main.c **** 
 269:Core/Src/main.c **** int fputc(int ch, FILE *f) {
 169              		.loc 1 269 28 is_stmt 1 view -0
 170              		.cfi_startproc
 171              		@ args = 0, pretend = 0, frame = 8
 172              		@ frame_needed = 0, uses_anonymous_args = 0
 173              		.loc 1 269 28 is_stmt 0 view .LVU30
 174 0000 00B5     		push	{lr}
 175              	.LCFI2:
 176              		.cfi_def_cfa_offset 4
 177              		.cfi_offset 14, -4
 178 0002 83B0     		sub	sp, sp, #12
 179              	.LCFI3:
 180              		.cfi_def_cfa_offset 16
 181 0004 0190     		str	r0, [sp, #4]
 270:Core/Src/main.c ****   HAL_UART_Transmit(&huart1, (uint8_t *)&ch, 1, 0xffff);
 182              		.loc 1 270 3 is_stmt 1 view .LVU31
 183 0006 4FF6FF73 		movw	r3, #65535
 184 000a 0122     		movs	r2, #1
 185 000c 01A9     		add	r1, sp, #4
 186              	.LVL14:
 187              		.loc 1 270 3 is_stmt 0 view .LVU32
 188 000e 0348     		ldr	r0, .L7
 189              	.LVL15:
 190              		.loc 1 270 3 view .LVU33
 191 0010 FFF7FEFF 		bl	HAL_UART_Transmit
ARM GAS  C:\Users\lenovo\AppData\Local\Temp\ccC9RAqD.s 			page 9


 192              	.LVL16:
 271:Core/Src/main.c ****   return ch;
 193              		.loc 1 271 3 is_stmt 1 view .LVU34
 272:Core/Src/main.c **** }
 194              		.loc 1 272 1 is_stmt 0 view .LVU35
 195 0014 0198     		ldr	r0, [sp, #4]
 196 0016 03B0     		add	sp, sp, #12
 197              	.LCFI4:
 198              		.cfi_def_cfa_offset 4
 199              		@ sp needed
 200 0018 5DF804FB 		ldr	pc, [sp], #4
 201              	.L8:
 202              		.align	2
 203              	.L7:
 204 001c 00000000 		.word	huart1
 205              		.cfi_endproc
 206              	.LFE139:
 208              		.section	.text.fgetc,"ax",%progbits
 209              		.align	1
 210              		.global	fgetc
 211              		.syntax unified
 212              		.thumb
 213              		.thumb_func
 215              	fgetc:
 216              	.LVL17:
 217              	.LFB140:
 273:Core/Src/main.c **** int fgetc(FILE *f) {
 218              		.loc 1 273 20 is_stmt 1 view -0
 219              		.cfi_startproc
 220              		@ args = 0, pretend = 0, frame = 8
 221              		@ frame_needed = 0, uses_anonymous_args = 0
 222              		.loc 1 273 20 is_stmt 0 view .LVU37
 223 0000 00B5     		push	{lr}
 224              	.LCFI5:
 225              		.cfi_def_cfa_offset 4
 226              		.cfi_offset 14, -4
 227 0002 83B0     		sub	sp, sp, #12
 228              	.LCFI6:
 229              		.cfi_def_cfa_offset 16
 274:Core/Src/main.c ****   uint8_t ch = 0;
 230              		.loc 1 274 3 is_stmt 1 view .LVU38
 231              		.loc 1 274 11 is_stmt 0 view .LVU39
 232 0004 0023     		movs	r3, #0
 233 0006 8DF80730 		strb	r3, [sp, #7]
 275:Core/Src/main.c ****   HAL_UART_Receive(&huart1, &ch, 1, 0xffff);
 234              		.loc 1 275 3 is_stmt 1 view .LVU40
 235 000a 4FF6FF73 		movw	r3, #65535
 236 000e 0122     		movs	r2, #1
 237 0010 0DF10701 		add	r1, sp, #7
 238 0014 0348     		ldr	r0, .L11
 239              	.LVL18:
 240              		.loc 1 275 3 is_stmt 0 view .LVU41
 241 0016 FFF7FEFF 		bl	HAL_UART_Receive
 242              	.LVL19:
 276:Core/Src/main.c ****   return ch;
 243              		.loc 1 276 3 is_stmt 1 view .LVU42
 277:Core/Src/main.c **** }
ARM GAS  C:\Users\lenovo\AppData\Local\Temp\ccC9RAqD.s 			page 10


 244              		.loc 1 277 1 is_stmt 0 view .LVU43
 245 001a 9DF80700 		ldrb	r0, [sp, #7]	@ zero_extendqisi2
 246 001e 03B0     		add	sp, sp, #12
 247              	.LCFI7:
 248              		.cfi_def_cfa_offset 4
 249              		@ sp needed
 250 0020 5DF804FB 		ldr	pc, [sp], #4
 251              	.L12:
 252              		.align	2
 253              	.L11:
 254 0024 00000000 		.word	huart1
 255              		.cfi_endproc
 256              	.LFE140:
 258              		.section	.text.HAL_I2C_SlaveRxCpltCallback,"ax",%progbits
 259              		.align	1
 260              		.global	HAL_I2C_SlaveRxCpltCallback
 261              		.syntax unified
 262              		.thumb
 263              		.thumb_func
 265              	HAL_I2C_SlaveRxCpltCallback:
 266              	.LVL20:
 267              	.LFB141:
 278:Core/Src/main.c **** 
 279:Core/Src/main.c **** void HAL_I2C_SlaveRxCpltCallback(I2C_HandleTypeDef *hi2c) {
 268              		.loc 1 279 59 is_stmt 1 view -0
 269              		.cfi_startproc
 270              		@ args = 0, pretend = 0, frame = 8
 271              		@ frame_needed = 0, uses_anonymous_args = 0
 272              		.loc 1 279 59 is_stmt 0 view .LVU45
 273 0000 00B5     		push	{lr}
 274              	.LCFI8:
 275              		.cfi_def_cfa_offset 4
 276              		.cfi_offset 14, -4
 277 0002 83B0     		sub	sp, sp, #12
 278              	.LCFI9:
 279              		.cfi_def_cfa_offset 16
 280:Core/Src/main.c ****   // printf("data1 = %d\n", ReceiveBuffer[1]);
 281:Core/Src/main.c ****   uint8_t IMU_data[6] = {0};
 280              		.loc 1 281 3 is_stmt 1 view .LVU46
 281              		.loc 1 281 11 is_stmt 0 view .LVU47
 282 0004 0023     		movs	r3, #0
 283 0006 0093     		str	r3, [sp]
 284 0008 ADF80430 		strh	r3, [sp, #4]	@ movhi
 282:Core/Src/main.c ****   for (int i = 0; i < 6; i++) {
 285              		.loc 1 282 3 is_stmt 1 view .LVU48
 286              	.LBB4:
 287              		.loc 1 282 8 view .LVU49
 288              	.LVL21:
 289              		.loc 1 282 3 is_stmt 0 view .LVU50
 290 000c 07E0     		b	.L14
 291              	.LVL22:
 292              	.L15:
 283:Core/Src/main.c ****     IMU_data[i] = ReceiveBuffer[i];
 293              		.loc 1 283 5 is_stmt 1 discriminator 3 view .LVU51
 294              		.loc 1 283 32 is_stmt 0 discriminator 3 view .LVU52
 295 000e 244A     		ldr	r2, .L17
 296 0010 D15C     		ldrb	r1, [r2, r3]	@ zero_extendqisi2
ARM GAS  C:\Users\lenovo\AppData\Local\Temp\ccC9RAqD.s 			page 11


 297              		.loc 1 283 17 discriminator 3 view .LVU53
 298 0012 03F10802 		add	r2, r3, #8
 299 0016 6A44     		add	r2, sp, r2
 300 0018 02F8081C 		strb	r1, [r2, #-8]
 282:Core/Src/main.c ****   for (int i = 0; i < 6; i++) {
 301              		.loc 1 282 26 is_stmt 1 discriminator 3 view .LVU54
 282:Core/Src/main.c ****   for (int i = 0; i < 6; i++) {
 302              		.loc 1 282 27 is_stmt 0 discriminator 3 view .LVU55
 303 001c 0133     		adds	r3, r3, #1
 304              	.LVL23:
 305              	.L14:
 282:Core/Src/main.c ****   for (int i = 0; i < 6; i++) {
 306              		.loc 1 282 19 is_stmt 1 discriminator 1 view .LVU56
 282:Core/Src/main.c ****   for (int i = 0; i < 6; i++) {
 307              		.loc 1 282 3 is_stmt 0 discriminator 1 view .LVU57
 308 001e 052B     		cmp	r3, #5
 309 0020 F5DD     		ble	.L15
 310              	.LBE4:
 284:Core/Src/main.c ****   }
 285:Core/Src/main.c ****   IMU_Angle_Raw[0] = (int16_t)(IMU_data[0] << 8 | IMU_data[1]);
 311              		.loc 1 285 3 is_stmt 1 view .LVU58
 312              		.loc 1 285 40 is_stmt 0 view .LVU59
 313 0022 9DF80030 		ldrb	r3, [sp]	@ zero_extendqisi2
 314              	.LVL24:
 315              		.loc 1 285 59 view .LVU60
 316 0026 9DF80110 		ldrb	r1, [sp, #1]	@ zero_extendqisi2
 317              		.loc 1 285 22 view .LVU61
 318 002a 41EA0321 		orr	r1, r1, r3, lsl #8
 319 002e 09B2     		sxth	r1, r1
 320              		.loc 1 285 20 view .LVU62
 321 0030 1C48     		ldr	r0, .L17+4
 322              	.LVL25:
 323              		.loc 1 285 20 view .LVU63
 324 0032 0180     		strh	r1, [r0]	@ movhi
 286:Core/Src/main.c ****   IMU_Angle_Raw[1] = (int16_t)(IMU_data[2] << 8 | IMU_data[3]);
 325              		.loc 1 286 3 is_stmt 1 view .LVU64
 326              		.loc 1 286 40 is_stmt 0 view .LVU65
 327 0034 9DF80230 		ldrb	r3, [sp, #2]	@ zero_extendqisi2
 328              		.loc 1 286 59 view .LVU66
 329 0038 9DF80320 		ldrb	r2, [sp, #3]	@ zero_extendqisi2
 330              		.loc 1 286 22 view .LVU67
 331 003c 42EA0322 		orr	r2, r2, r3, lsl #8
 332 0040 12B2     		sxth	r2, r2
 333              		.loc 1 286 20 view .LVU68
 334 0042 4280     		strh	r2, [r0, #2]	@ movhi
 287:Core/Src/main.c ****   IMU_Angle_Raw[2] = (int16_t)(IMU_data[4] << 8 | IMU_data[5]);
 335              		.loc 1 287 3 is_stmt 1 view .LVU69
 336              		.loc 1 287 40 is_stmt 0 view .LVU70
 337 0044 9DF804C0 		ldrb	ip, [sp, #4]	@ zero_extendqisi2
 338              		.loc 1 287 59 view .LVU71
 339 0048 9DF80530 		ldrb	r3, [sp, #5]	@ zero_extendqisi2
 340              		.loc 1 287 22 view .LVU72
 341 004c 43EA0C23 		orr	r3, r3, ip, lsl #8
 342 0050 1BB2     		sxth	r3, r3
 343              		.loc 1 287 20 view .LVU73
 344 0052 8380     		strh	r3, [r0, #4]	@ movhi
 288:Core/Src/main.c ****   IMU_Angle[0] = (float)IMU_Angle_Raw[0] / 100;
ARM GAS  C:\Users\lenovo\AppData\Local\Temp\ccC9RAqD.s 			page 12


 345              		.loc 1 288 3 is_stmt 1 view .LVU74
 346              		.loc 1 288 18 is_stmt 0 view .LVU75
 347 0054 07EE901A 		vmov	s15, r1	@ int
 348 0058 F8EEE77A 		vcvt.f32.s32	s15, s15
 349              		.loc 1 288 42 view .LVU76
 350 005c 9FED127A 		vldr.32	s14, .L17+8
 351 0060 C7EE876A 		vdiv.f32	s13, s15, s14
 352              		.loc 1 288 16 view .LVU77
 353 0064 1149     		ldr	r1, .L17+12
 354 0066 C1ED006A 		vstr.32	s13, [r1]
 289:Core/Src/main.c ****   IMU_Angle[1] = (float)IMU_Angle_Raw[1] / 100;
 355              		.loc 1 289 3 is_stmt 1 view .LVU78
 356              		.loc 1 289 18 is_stmt 0 view .LVU79
 357 006a 07EE902A 		vmov	s15, r2	@ int
 358 006e F8EEE77A 		vcvt.f32.s32	s15, s15
 359              		.loc 1 289 42 view .LVU80
 360 0072 C7EE876A 		vdiv.f32	s13, s15, s14
 361              		.loc 1 289 16 view .LVU81
 362 0076 C1ED016A 		vstr.32	s13, [r1, #4]
 290:Core/Src/main.c ****   IMU_Angle[2] = (float)IMU_Angle_Raw[2] / 10;
 363              		.loc 1 290 3 is_stmt 1 view .LVU82
 364              		.loc 1 290 18 is_stmt 0 view .LVU83
 365 007a 07EE903A 		vmov	s15, r3	@ int
 366 007e F8EEE77A 		vcvt.f32.s32	s15, s15
 367              		.loc 1 290 42 view .LVU84
 368 0082 F2EE046A 		vmov.f32	s13, #1.0e+1
 369 0086 87EEA67A 		vdiv.f32	s14, s15, s13
 370              		.loc 1 290 16 view .LVU85
 371 008a 81ED027A 		vstr.32	s14, [r1, #8]
 291:Core/Src/main.c ****   //  printf("%f, %d, %d, \n",
 292:Core/Src/main.c ****   //        (int16_t)(IMU_data[0]<<8 | IMU_data[1])/100,
 293:Core/Src/main.c ****   //        (int16_t)(IMU_data[2]<<8 | IMU_data[3]),
 294:Core/Src/main.c ****   //        (int16_t)(IMU_data[4]<<8 | IMU_data[5])*10);
 295:Core/Src/main.c ****   /**printf("%f, %f, %f\n", IMU_Angle[0], IMU_Angle[1], IMU_Angle[2]);*/
 296:Core/Src/main.c ****   HAL_I2C_Slave_Receive_IT(&hi2c2, ReceiveBuffer, sizeof(ReceiveBuffer));
 372              		.loc 1 296 3 is_stmt 1 view .LVU86
 373 008e 0622     		movs	r2, #6
 374 0090 0349     		ldr	r1, .L17
 375 0092 0748     		ldr	r0, .L17+16
 376 0094 FFF7FEFF 		bl	HAL_I2C_Slave_Receive_IT
 377              	.LVL26:
 297:Core/Src/main.c **** }
 378              		.loc 1 297 1 is_stmt 0 view .LVU87
 379 0098 03B0     		add	sp, sp, #12
 380              	.LCFI10:
 381              		.cfi_def_cfa_offset 4
 382              		@ sp needed
 383 009a 5DF804FB 		ldr	pc, [sp], #4
 384              	.L18:
 385 009e 00BF     		.align	2
 386              	.L17:
 387 00a0 00000000 		.word	.LANCHOR0
 388 00a4 00000000 		.word	IMU_Angle_Raw
 389 00a8 0000C842 		.word	1120403456
 390 00ac 00000000 		.word	IMU_Angle
 391 00b0 00000000 		.word	hi2c2
 392              		.cfi_endproc
ARM GAS  C:\Users\lenovo\AppData\Local\Temp\ccC9RAqD.s 			page 13


 393              	.LFE141:
 395              		.section	.text.Error_Handler,"ax",%progbits
 396              		.align	1
 397              		.global	Error_Handler
 398              		.syntax unified
 399              		.thumb
 400              		.thumb_func
 402              	Error_Handler:
 403              	.LFB142:
 298:Core/Src/main.c **** 
 299:Core/Src/main.c **** /* USER CODE END 4 */
 300:Core/Src/main.c **** 
 301:Core/Src/main.c **** /**
 302:Core/Src/main.c ****  * @brief  This function is executed in case of error occurrence.
 303:Core/Src/main.c ****  * @retval None
 304:Core/Src/main.c ****  */
 305:Core/Src/main.c **** void Error_Handler(void) {
 404              		.loc 1 305 26 is_stmt 1 view -0
 405              		.cfi_startproc
 406              		@ Volatile: function does not return.
 407              		@ args = 0, pretend = 0, frame = 0
 408              		@ frame_needed = 0, uses_anonymous_args = 0
 409              		@ link register save eliminated.
 306:Core/Src/main.c ****   /* USER CODE BEGIN Error_Handler_Debug */
 307:Core/Src/main.c ****   /* User can add his own implementation to report the HAL error return state */
 308:Core/Src/main.c ****   __disable_irq();
 410              		.loc 1 308 3 view .LVU89
 411              	.LBB5:
 412              	.LBI5:
 413              		.file 2 "Drivers/CMSIS/Include/cmsis_gcc.h"
   1:Drivers/CMSIS/Include/cmsis_gcc.h **** /**************************************************************************//**
   2:Drivers/CMSIS/Include/cmsis_gcc.h ****  * @file     cmsis_gcc.h
   3:Drivers/CMSIS/Include/cmsis_gcc.h ****  * @brief    CMSIS compiler GCC header file
   4:Drivers/CMSIS/Include/cmsis_gcc.h ****  * @version  V5.0.4
   5:Drivers/CMSIS/Include/cmsis_gcc.h ****  * @date     09. April 2018
   6:Drivers/CMSIS/Include/cmsis_gcc.h ****  ******************************************************************************/
   7:Drivers/CMSIS/Include/cmsis_gcc.h **** /*
   8:Drivers/CMSIS/Include/cmsis_gcc.h ****  * Copyright (c) 2009-2018 Arm Limited. All rights reserved.
   9:Drivers/CMSIS/Include/cmsis_gcc.h ****  *
  10:Drivers/CMSIS/Include/cmsis_gcc.h ****  * SPDX-License-Identifier: Apache-2.0
  11:Drivers/CMSIS/Include/cmsis_gcc.h ****  *
  12:Drivers/CMSIS/Include/cmsis_gcc.h ****  * Licensed under the Apache License, Version 2.0 (the License); you may
  13:Drivers/CMSIS/Include/cmsis_gcc.h ****  * not use this file except in compliance with the License.
  14:Drivers/CMSIS/Include/cmsis_gcc.h ****  * You may obtain a copy of the License at
  15:Drivers/CMSIS/Include/cmsis_gcc.h ****  *
  16:Drivers/CMSIS/Include/cmsis_gcc.h ****  * www.apache.org/licenses/LICENSE-2.0
  17:Drivers/CMSIS/Include/cmsis_gcc.h ****  *
  18:Drivers/CMSIS/Include/cmsis_gcc.h ****  * Unless required by applicable law or agreed to in writing, software
  19:Drivers/CMSIS/Include/cmsis_gcc.h ****  * distributed under the License is distributed on an AS IS BASIS, WITHOUT
  20:Drivers/CMSIS/Include/cmsis_gcc.h ****  * WARRANTIES OR CONDITIONS OF ANY KIND, either express or implied.
  21:Drivers/CMSIS/Include/cmsis_gcc.h ****  * See the License for the specific language governing permissions and
  22:Drivers/CMSIS/Include/cmsis_gcc.h ****  * limitations under the License.
  23:Drivers/CMSIS/Include/cmsis_gcc.h ****  */
  24:Drivers/CMSIS/Include/cmsis_gcc.h **** 
  25:Drivers/CMSIS/Include/cmsis_gcc.h **** #ifndef __CMSIS_GCC_H
  26:Drivers/CMSIS/Include/cmsis_gcc.h **** #define __CMSIS_GCC_H
  27:Drivers/CMSIS/Include/cmsis_gcc.h **** 
ARM GAS  C:\Users\lenovo\AppData\Local\Temp\ccC9RAqD.s 			page 14


  28:Drivers/CMSIS/Include/cmsis_gcc.h **** /* ignore some GCC warnings */
  29:Drivers/CMSIS/Include/cmsis_gcc.h **** #pragma GCC diagnostic push
  30:Drivers/CMSIS/Include/cmsis_gcc.h **** #pragma GCC diagnostic ignored "-Wsign-conversion"
  31:Drivers/CMSIS/Include/cmsis_gcc.h **** #pragma GCC diagnostic ignored "-Wconversion"
  32:Drivers/CMSIS/Include/cmsis_gcc.h **** #pragma GCC diagnostic ignored "-Wunused-parameter"
  33:Drivers/CMSIS/Include/cmsis_gcc.h **** 
  34:Drivers/CMSIS/Include/cmsis_gcc.h **** /* Fallback for __has_builtin */
  35:Drivers/CMSIS/Include/cmsis_gcc.h **** #ifndef __has_builtin
  36:Drivers/CMSIS/Include/cmsis_gcc.h ****   #define __has_builtin(x) (0)
  37:Drivers/CMSIS/Include/cmsis_gcc.h **** #endif
  38:Drivers/CMSIS/Include/cmsis_gcc.h **** 
  39:Drivers/CMSIS/Include/cmsis_gcc.h **** /* CMSIS compiler specific defines */
  40:Drivers/CMSIS/Include/cmsis_gcc.h **** #ifndef   __ASM
  41:Drivers/CMSIS/Include/cmsis_gcc.h ****   #define __ASM                                  __asm
  42:Drivers/CMSIS/Include/cmsis_gcc.h **** #endif
  43:Drivers/CMSIS/Include/cmsis_gcc.h **** #ifndef   __INLINE
  44:Drivers/CMSIS/Include/cmsis_gcc.h ****   #define __INLINE                               inline
  45:Drivers/CMSIS/Include/cmsis_gcc.h **** #endif
  46:Drivers/CMSIS/Include/cmsis_gcc.h **** #ifndef   __STATIC_INLINE
  47:Drivers/CMSIS/Include/cmsis_gcc.h ****   #define __STATIC_INLINE                        static inline
  48:Drivers/CMSIS/Include/cmsis_gcc.h **** #endif
  49:Drivers/CMSIS/Include/cmsis_gcc.h **** #ifndef   __STATIC_FORCEINLINE                 
  50:Drivers/CMSIS/Include/cmsis_gcc.h ****   #define __STATIC_FORCEINLINE                   __attribute__((always_inline)) static inline
  51:Drivers/CMSIS/Include/cmsis_gcc.h **** #endif                                           
  52:Drivers/CMSIS/Include/cmsis_gcc.h **** #ifndef   __NO_RETURN
  53:Drivers/CMSIS/Include/cmsis_gcc.h ****   #define __NO_RETURN                            __attribute__((__noreturn__))
  54:Drivers/CMSIS/Include/cmsis_gcc.h **** #endif
  55:Drivers/CMSIS/Include/cmsis_gcc.h **** #ifndef   __USED
  56:Drivers/CMSIS/Include/cmsis_gcc.h ****   #define __USED                                 __attribute__((used))
  57:Drivers/CMSIS/Include/cmsis_gcc.h **** #endif
  58:Drivers/CMSIS/Include/cmsis_gcc.h **** #ifndef   __WEAK
  59:Drivers/CMSIS/Include/cmsis_gcc.h ****   #define __WEAK                                 __attribute__((weak))
  60:Drivers/CMSIS/Include/cmsis_gcc.h **** #endif
  61:Drivers/CMSIS/Include/cmsis_gcc.h **** #ifndef   __PACKED
  62:Drivers/CMSIS/Include/cmsis_gcc.h ****   #define __PACKED                               __attribute__((packed, aligned(1)))
  63:Drivers/CMSIS/Include/cmsis_gcc.h **** #endif
  64:Drivers/CMSIS/Include/cmsis_gcc.h **** #ifndef   __PACKED_STRUCT
  65:Drivers/CMSIS/Include/cmsis_gcc.h ****   #define __PACKED_STRUCT                        struct __attribute__((packed, aligned(1)))
  66:Drivers/CMSIS/Include/cmsis_gcc.h **** #endif
  67:Drivers/CMSIS/Include/cmsis_gcc.h **** #ifndef   __PACKED_UNION
  68:Drivers/CMSIS/Include/cmsis_gcc.h ****   #define __PACKED_UNION                         union __attribute__((packed, aligned(1)))
  69:Drivers/CMSIS/Include/cmsis_gcc.h **** #endif
  70:Drivers/CMSIS/Include/cmsis_gcc.h **** #ifndef   __UNALIGNED_UINT32        /* deprecated */
  71:Drivers/CMSIS/Include/cmsis_gcc.h ****   #pragma GCC diagnostic push
  72:Drivers/CMSIS/Include/cmsis_gcc.h ****   #pragma GCC diagnostic ignored "-Wpacked"
  73:Drivers/CMSIS/Include/cmsis_gcc.h ****   #pragma GCC diagnostic ignored "-Wattributes"
  74:Drivers/CMSIS/Include/cmsis_gcc.h ****   struct __attribute__((packed)) T_UINT32 { uint32_t v; };
  75:Drivers/CMSIS/Include/cmsis_gcc.h ****   #pragma GCC diagnostic pop
  76:Drivers/CMSIS/Include/cmsis_gcc.h ****   #define __UNALIGNED_UINT32(x)                  (((struct T_UINT32 *)(x))->v)
  77:Drivers/CMSIS/Include/cmsis_gcc.h **** #endif
  78:Drivers/CMSIS/Include/cmsis_gcc.h **** #ifndef   __UNALIGNED_UINT16_WRITE
  79:Drivers/CMSIS/Include/cmsis_gcc.h ****   #pragma GCC diagnostic push
  80:Drivers/CMSIS/Include/cmsis_gcc.h ****   #pragma GCC diagnostic ignored "-Wpacked"
  81:Drivers/CMSIS/Include/cmsis_gcc.h ****   #pragma GCC diagnostic ignored "-Wattributes"
  82:Drivers/CMSIS/Include/cmsis_gcc.h ****   __PACKED_STRUCT T_UINT16_WRITE { uint16_t v; };
  83:Drivers/CMSIS/Include/cmsis_gcc.h ****   #pragma GCC diagnostic pop
  84:Drivers/CMSIS/Include/cmsis_gcc.h ****   #define __UNALIGNED_UINT16_WRITE(addr, val)    (void)((((struct T_UINT16_WRITE *)(void *)(addr))-
ARM GAS  C:\Users\lenovo\AppData\Local\Temp\ccC9RAqD.s 			page 15


  85:Drivers/CMSIS/Include/cmsis_gcc.h **** #endif
  86:Drivers/CMSIS/Include/cmsis_gcc.h **** #ifndef   __UNALIGNED_UINT16_READ
  87:Drivers/CMSIS/Include/cmsis_gcc.h ****   #pragma GCC diagnostic push
  88:Drivers/CMSIS/Include/cmsis_gcc.h ****   #pragma GCC diagnostic ignored "-Wpacked"
  89:Drivers/CMSIS/Include/cmsis_gcc.h ****   #pragma GCC diagnostic ignored "-Wattributes"
  90:Drivers/CMSIS/Include/cmsis_gcc.h ****   __PACKED_STRUCT T_UINT16_READ { uint16_t v; };
  91:Drivers/CMSIS/Include/cmsis_gcc.h ****   #pragma GCC diagnostic pop
  92:Drivers/CMSIS/Include/cmsis_gcc.h ****   #define __UNALIGNED_UINT16_READ(addr)          (((const struct T_UINT16_READ *)(const void *)(add
  93:Drivers/CMSIS/Include/cmsis_gcc.h **** #endif
  94:Drivers/CMSIS/Include/cmsis_gcc.h **** #ifndef   __UNALIGNED_UINT32_WRITE
  95:Drivers/CMSIS/Include/cmsis_gcc.h ****   #pragma GCC diagnostic push
  96:Drivers/CMSIS/Include/cmsis_gcc.h ****   #pragma GCC diagnostic ignored "-Wpacked"
  97:Drivers/CMSIS/Include/cmsis_gcc.h ****   #pragma GCC diagnostic ignored "-Wattributes"
  98:Drivers/CMSIS/Include/cmsis_gcc.h ****   __PACKED_STRUCT T_UINT32_WRITE { uint32_t v; };
  99:Drivers/CMSIS/Include/cmsis_gcc.h ****   #pragma GCC diagnostic pop
 100:Drivers/CMSIS/Include/cmsis_gcc.h ****   #define __UNALIGNED_UINT32_WRITE(addr, val)    (void)((((struct T_UINT32_WRITE *)(void *)(addr))-
 101:Drivers/CMSIS/Include/cmsis_gcc.h **** #endif
 102:Drivers/CMSIS/Include/cmsis_gcc.h **** #ifndef   __UNALIGNED_UINT32_READ
 103:Drivers/CMSIS/Include/cmsis_gcc.h ****   #pragma GCC diagnostic push
 104:Drivers/CMSIS/Include/cmsis_gcc.h ****   #pragma GCC diagnostic ignored "-Wpacked"
 105:Drivers/CMSIS/Include/cmsis_gcc.h ****   #pragma GCC diagnostic ignored "-Wattributes"
 106:Drivers/CMSIS/Include/cmsis_gcc.h ****   __PACKED_STRUCT T_UINT32_READ { uint32_t v; };
 107:Drivers/CMSIS/Include/cmsis_gcc.h ****   #pragma GCC diagnostic pop
 108:Drivers/CMSIS/Include/cmsis_gcc.h ****   #define __UNALIGNED_UINT32_READ(addr)          (((const struct T_UINT32_READ *)(const void *)(add
 109:Drivers/CMSIS/Include/cmsis_gcc.h **** #endif
 110:Drivers/CMSIS/Include/cmsis_gcc.h **** #ifndef   __ALIGNED
 111:Drivers/CMSIS/Include/cmsis_gcc.h ****   #define __ALIGNED(x)                           __attribute__((aligned(x)))
 112:Drivers/CMSIS/Include/cmsis_gcc.h **** #endif
 113:Drivers/CMSIS/Include/cmsis_gcc.h **** #ifndef   __RESTRICT
 114:Drivers/CMSIS/Include/cmsis_gcc.h ****   #define __RESTRICT                             __restrict
 115:Drivers/CMSIS/Include/cmsis_gcc.h **** #endif
 116:Drivers/CMSIS/Include/cmsis_gcc.h **** 
 117:Drivers/CMSIS/Include/cmsis_gcc.h **** 
 118:Drivers/CMSIS/Include/cmsis_gcc.h **** /* ###########################  Core Function Access  ########################### */
 119:Drivers/CMSIS/Include/cmsis_gcc.h **** /** \ingroup  CMSIS_Core_FunctionInterface
 120:Drivers/CMSIS/Include/cmsis_gcc.h ****     \defgroup CMSIS_Core_RegAccFunctions CMSIS Core Register Access Functions
 121:Drivers/CMSIS/Include/cmsis_gcc.h ****   @{
 122:Drivers/CMSIS/Include/cmsis_gcc.h ****  */
 123:Drivers/CMSIS/Include/cmsis_gcc.h **** 
 124:Drivers/CMSIS/Include/cmsis_gcc.h **** /**
 125:Drivers/CMSIS/Include/cmsis_gcc.h ****   \brief   Enable IRQ Interrupts
 126:Drivers/CMSIS/Include/cmsis_gcc.h ****   \details Enables IRQ interrupts by clearing the I-bit in the CPSR.
 127:Drivers/CMSIS/Include/cmsis_gcc.h ****            Can only be executed in Privileged modes.
 128:Drivers/CMSIS/Include/cmsis_gcc.h ****  */
 129:Drivers/CMSIS/Include/cmsis_gcc.h **** __STATIC_FORCEINLINE void __enable_irq(void)
 130:Drivers/CMSIS/Include/cmsis_gcc.h **** {
 131:Drivers/CMSIS/Include/cmsis_gcc.h ****   __ASM volatile ("cpsie i" : : : "memory");
 132:Drivers/CMSIS/Include/cmsis_gcc.h **** }
 133:Drivers/CMSIS/Include/cmsis_gcc.h **** 
 134:Drivers/CMSIS/Include/cmsis_gcc.h **** 
 135:Drivers/CMSIS/Include/cmsis_gcc.h **** /**
 136:Drivers/CMSIS/Include/cmsis_gcc.h ****   \brief   Disable IRQ Interrupts
 137:Drivers/CMSIS/Include/cmsis_gcc.h ****   \details Disables IRQ interrupts by setting the I-bit in the CPSR.
 138:Drivers/CMSIS/Include/cmsis_gcc.h ****            Can only be executed in Privileged modes.
 139:Drivers/CMSIS/Include/cmsis_gcc.h ****  */
 140:Drivers/CMSIS/Include/cmsis_gcc.h **** __STATIC_FORCEINLINE void __disable_irq(void)
 414              		.loc 2 140 27 view .LVU90
ARM GAS  C:\Users\lenovo\AppData\Local\Temp\ccC9RAqD.s 			page 16


 415              	.LBB6:
 141:Drivers/CMSIS/Include/cmsis_gcc.h **** {
 142:Drivers/CMSIS/Include/cmsis_gcc.h ****   __ASM volatile ("cpsid i" : : : "memory");
 416              		.loc 2 142 3 view .LVU91
 417              		.syntax unified
 418              	@ 142 "Drivers/CMSIS/Include/cmsis_gcc.h" 1
 419 0000 72B6     		cpsid i
 420              	@ 0 "" 2
 421              		.thumb
 422              		.syntax unified
 423              	.L20:
 424              	.LBE6:
 425              	.LBE5:
 309:Core/Src/main.c ****   while (1) {
 426              		.loc 1 309 3 discriminator 1 view .LVU92
 310:Core/Src/main.c ****   }
 427              		.loc 1 310 3 discriminator 1 view .LVU93
 309:Core/Src/main.c ****   while (1) {
 428              		.loc 1 309 9 discriminator 1 view .LVU94
 429 0002 FEE7     		b	.L20
 430              		.cfi_endproc
 431              	.LFE142:
 433              		.section	.text.SystemClock_Config,"ax",%progbits
 434              		.align	1
 435              		.global	SystemClock_Config
 436              		.syntax unified
 437              		.thumb
 438              		.thumb_func
 440              	SystemClock_Config:
 441              	.LFB138:
 229:Core/Src/main.c ****   RCC_OscInitTypeDef RCC_OscInitStruct = {0};
 442              		.loc 1 229 31 view -0
 443              		.cfi_startproc
 444              		@ args = 0, pretend = 0, frame = 80
 445              		@ frame_needed = 0, uses_anonymous_args = 0
 446 0000 00B5     		push	{lr}
 447              	.LCFI11:
 448              		.cfi_def_cfa_offset 4
 449              		.cfi_offset 14, -4
 450 0002 95B0     		sub	sp, sp, #84
 451              	.LCFI12:
 452              		.cfi_def_cfa_offset 88
 230:Core/Src/main.c ****   RCC_ClkInitTypeDef RCC_ClkInitStruct = {0};
 453              		.loc 1 230 3 view .LVU96
 230:Core/Src/main.c ****   RCC_ClkInitTypeDef RCC_ClkInitStruct = {0};
 454              		.loc 1 230 22 is_stmt 0 view .LVU97
 455 0004 3022     		movs	r2, #48
 456 0006 0021     		movs	r1, #0
 457 0008 08A8     		add	r0, sp, #32
 458 000a FFF7FEFF 		bl	memset
 459              	.LVL27:
 231:Core/Src/main.c **** 
 460              		.loc 1 231 3 is_stmt 1 view .LVU98
 231:Core/Src/main.c **** 
 461              		.loc 1 231 22 is_stmt 0 view .LVU99
 462 000e 0023     		movs	r3, #0
 463 0010 0393     		str	r3, [sp, #12]
ARM GAS  C:\Users\lenovo\AppData\Local\Temp\ccC9RAqD.s 			page 17


 464 0012 0493     		str	r3, [sp, #16]
 465 0014 0593     		str	r3, [sp, #20]
 466 0016 0693     		str	r3, [sp, #24]
 467 0018 0793     		str	r3, [sp, #28]
 235:Core/Src/main.c ****   __HAL_PWR_VOLTAGESCALING_CONFIG(PWR_REGULATOR_VOLTAGE_SCALE1);
 468              		.loc 1 235 3 is_stmt 1 view .LVU100
 469              	.LBB7:
 235:Core/Src/main.c ****   __HAL_PWR_VOLTAGESCALING_CONFIG(PWR_REGULATOR_VOLTAGE_SCALE1);
 470              		.loc 1 235 3 view .LVU101
 471 001a 0193     		str	r3, [sp, #4]
 235:Core/Src/main.c ****   __HAL_PWR_VOLTAGESCALING_CONFIG(PWR_REGULATOR_VOLTAGE_SCALE1);
 472              		.loc 1 235 3 view .LVU102
 473 001c 204A     		ldr	r2, .L27
 474 001e 116C     		ldr	r1, [r2, #64]
 475 0020 41F08051 		orr	r1, r1, #268435456
 476 0024 1164     		str	r1, [r2, #64]
 235:Core/Src/main.c ****   __HAL_PWR_VOLTAGESCALING_CONFIG(PWR_REGULATOR_VOLTAGE_SCALE1);
 477              		.loc 1 235 3 view .LVU103
 478 0026 126C     		ldr	r2, [r2, #64]
 479 0028 02F08052 		and	r2, r2, #268435456
 480 002c 0192     		str	r2, [sp, #4]
 235:Core/Src/main.c ****   __HAL_PWR_VOLTAGESCALING_CONFIG(PWR_REGULATOR_VOLTAGE_SCALE1);
 481              		.loc 1 235 3 view .LVU104
 482 002e 019A     		ldr	r2, [sp, #4]
 483              	.LBE7:
 235:Core/Src/main.c ****   __HAL_PWR_VOLTAGESCALING_CONFIG(PWR_REGULATOR_VOLTAGE_SCALE1);
 484              		.loc 1 235 3 view .LVU105
 236:Core/Src/main.c **** 
 485              		.loc 1 236 3 view .LVU106
 486              	.LBB8:
 236:Core/Src/main.c **** 
 487              		.loc 1 236 3 view .LVU107
 488 0030 0293     		str	r3, [sp, #8]
 236:Core/Src/main.c **** 
 489              		.loc 1 236 3 view .LVU108
 490 0032 1C4B     		ldr	r3, .L27+4
 491 0034 1A68     		ldr	r2, [r3]
 492 0036 42F48042 		orr	r2, r2, #16384
 493 003a 1A60     		str	r2, [r3]
 236:Core/Src/main.c **** 
 494              		.loc 1 236 3 view .LVU109
 495 003c 1B68     		ldr	r3, [r3]
 496 003e 03F48043 		and	r3, r3, #16384
 497 0042 0293     		str	r3, [sp, #8]
 236:Core/Src/main.c **** 
 498              		.loc 1 236 3 view .LVU110
 499 0044 029B     		ldr	r3, [sp, #8]
 500              	.LBE8:
 236:Core/Src/main.c **** 
 501              		.loc 1 236 3 view .LVU111
 241:Core/Src/main.c ****   RCC_OscInitStruct.HSEState = RCC_HSE_ON;
 502              		.loc 1 241 3 view .LVU112
 241:Core/Src/main.c ****   RCC_OscInitStruct.HSEState = RCC_HSE_ON;
 503              		.loc 1 241 36 is_stmt 0 view .LVU113
 504 0046 0123     		movs	r3, #1
 505 0048 0893     		str	r3, [sp, #32]
 242:Core/Src/main.c ****   RCC_OscInitStruct.PLL.PLLState = RCC_PLL_ON;
ARM GAS  C:\Users\lenovo\AppData\Local\Temp\ccC9RAqD.s 			page 18


 506              		.loc 1 242 3 is_stmt 1 view .LVU114
 242:Core/Src/main.c ****   RCC_OscInitStruct.PLL.PLLState = RCC_PLL_ON;
 507              		.loc 1 242 30 is_stmt 0 view .LVU115
 508 004a 4FF48033 		mov	r3, #65536
 509 004e 0993     		str	r3, [sp, #36]
 243:Core/Src/main.c ****   RCC_OscInitStruct.PLL.PLLSource = RCC_PLLSOURCE_HSE;
 510              		.loc 1 243 3 is_stmt 1 view .LVU116
 243:Core/Src/main.c ****   RCC_OscInitStruct.PLL.PLLSource = RCC_PLLSOURCE_HSE;
 511              		.loc 1 243 34 is_stmt 0 view .LVU117
 512 0050 0223     		movs	r3, #2
 513 0052 0E93     		str	r3, [sp, #56]
 244:Core/Src/main.c ****   RCC_OscInitStruct.PLL.PLLM = 6;
 514              		.loc 1 244 3 is_stmt 1 view .LVU118
 244:Core/Src/main.c ****   RCC_OscInitStruct.PLL.PLLM = 6;
 515              		.loc 1 244 35 is_stmt 0 view .LVU119
 516 0054 4FF48002 		mov	r2, #4194304
 517 0058 0F92     		str	r2, [sp, #60]
 245:Core/Src/main.c ****   RCC_OscInitStruct.PLL.PLLN = 168;
 518              		.loc 1 245 3 is_stmt 1 view .LVU120
 245:Core/Src/main.c ****   RCC_OscInitStruct.PLL.PLLN = 168;
 519              		.loc 1 245 30 is_stmt 0 view .LVU121
 520 005a 0622     		movs	r2, #6
 521 005c 1092     		str	r2, [sp, #64]
 246:Core/Src/main.c ****   RCC_OscInitStruct.PLL.PLLP = RCC_PLLP_DIV2;
 522              		.loc 1 246 3 is_stmt 1 view .LVU122
 246:Core/Src/main.c ****   RCC_OscInitStruct.PLL.PLLP = RCC_PLLP_DIV2;
 523              		.loc 1 246 30 is_stmt 0 view .LVU123
 524 005e A822     		movs	r2, #168
 525 0060 1192     		str	r2, [sp, #68]
 247:Core/Src/main.c ****   RCC_OscInitStruct.PLL.PLLQ = 7;
 526              		.loc 1 247 3 is_stmt 1 view .LVU124
 247:Core/Src/main.c ****   RCC_OscInitStruct.PLL.PLLQ = 7;
 527              		.loc 1 247 30 is_stmt 0 view .LVU125
 528 0062 1293     		str	r3, [sp, #72]
 248:Core/Src/main.c ****   if (HAL_RCC_OscConfig(&RCC_OscInitStruct) != HAL_OK) {
 529              		.loc 1 248 3 is_stmt 1 view .LVU126
 248:Core/Src/main.c ****   if (HAL_RCC_OscConfig(&RCC_OscInitStruct) != HAL_OK) {
 530              		.loc 1 248 30 is_stmt 0 view .LVU127
 531 0064 0723     		movs	r3, #7
 532 0066 1393     		str	r3, [sp, #76]
 249:Core/Src/main.c ****     Error_Handler();
 533              		.loc 1 249 3 is_stmt 1 view .LVU128
 249:Core/Src/main.c ****     Error_Handler();
 534              		.loc 1 249 7 is_stmt 0 view .LVU129
 535 0068 08A8     		add	r0, sp, #32
 536 006a FFF7FEFF 		bl	HAL_RCC_OscConfig
 537              	.LVL28:
 249:Core/Src/main.c ****     Error_Handler();
 538              		.loc 1 249 6 view .LVU130
 539 006e 98B9     		cbnz	r0, .L25
 255:Core/Src/main.c ****                                 RCC_CLOCKTYPE_PCLK1 | RCC_CLOCKTYPE_PCLK2;
 540              		.loc 1 255 3 is_stmt 1 view .LVU131
 255:Core/Src/main.c ****                                 RCC_CLOCKTYPE_PCLK1 | RCC_CLOCKTYPE_PCLK2;
 541              		.loc 1 255 31 is_stmt 0 view .LVU132
 542 0070 0F23     		movs	r3, #15
 543 0072 0393     		str	r3, [sp, #12]
 257:Core/Src/main.c ****   RCC_ClkInitStruct.AHBCLKDivider = RCC_SYSCLK_DIV1;
ARM GAS  C:\Users\lenovo\AppData\Local\Temp\ccC9RAqD.s 			page 19


 544              		.loc 1 257 3 is_stmt 1 view .LVU133
 257:Core/Src/main.c ****   RCC_ClkInitStruct.AHBCLKDivider = RCC_SYSCLK_DIV1;
 545              		.loc 1 257 34 is_stmt 0 view .LVU134
 546 0074 0223     		movs	r3, #2
 547 0076 0493     		str	r3, [sp, #16]
 258:Core/Src/main.c ****   RCC_ClkInitStruct.APB1CLKDivider = RCC_HCLK_DIV4;
 548              		.loc 1 258 3 is_stmt 1 view .LVU135
 258:Core/Src/main.c ****   RCC_ClkInitStruct.APB1CLKDivider = RCC_HCLK_DIV4;
 549              		.loc 1 258 35 is_stmt 0 view .LVU136
 550 0078 0023     		movs	r3, #0
 551 007a 0593     		str	r3, [sp, #20]
 259:Core/Src/main.c ****   RCC_ClkInitStruct.APB2CLKDivider = RCC_HCLK_DIV2;
 552              		.loc 1 259 3 is_stmt 1 view .LVU137
 259:Core/Src/main.c ****   RCC_ClkInitStruct.APB2CLKDivider = RCC_HCLK_DIV2;
 553              		.loc 1 259 36 is_stmt 0 view .LVU138
 554 007c 4FF4A053 		mov	r3, #5120
 555 0080 0693     		str	r3, [sp, #24]
 260:Core/Src/main.c **** 
 556              		.loc 1 260 3 is_stmt 1 view .LVU139
 260:Core/Src/main.c **** 
 557              		.loc 1 260 36 is_stmt 0 view .LVU140
 558 0082 4FF48053 		mov	r3, #4096
 559 0086 0793     		str	r3, [sp, #28]
 262:Core/Src/main.c ****     Error_Handler();
 560              		.loc 1 262 3 is_stmt 1 view .LVU141
 262:Core/Src/main.c ****     Error_Handler();
 561              		.loc 1 262 7 is_stmt 0 view .LVU142
 562 0088 0521     		movs	r1, #5
 563 008a 03A8     		add	r0, sp, #12
 564 008c FFF7FEFF 		bl	HAL_RCC_ClockConfig
 565              	.LVL29:
 262:Core/Src/main.c ****     Error_Handler();
 566              		.loc 1 262 6 view .LVU143
 567 0090 20B9     		cbnz	r0, .L26
 265:Core/Src/main.c **** 
 568              		.loc 1 265 1 view .LVU144
 569 0092 15B0     		add	sp, sp, #84
 570              	.LCFI13:
 571              		.cfi_remember_state
 572              		.cfi_def_cfa_offset 4
 573              		@ sp needed
 574 0094 5DF804FB 		ldr	pc, [sp], #4
 575              	.L25:
 576              	.LCFI14:
 577              		.cfi_restore_state
 250:Core/Src/main.c ****   }
 578              		.loc 1 250 5 is_stmt 1 view .LVU145
 579 0098 FFF7FEFF 		bl	Error_Handler
 580              	.LVL30:
 581              	.L26:
 263:Core/Src/main.c ****   }
 582              		.loc 1 263 5 view .LVU146
 583 009c FFF7FEFF 		bl	Error_Handler
 584              	.LVL31:
 585              	.L28:
 586              		.align	2
 587              	.L27:
ARM GAS  C:\Users\lenovo\AppData\Local\Temp\ccC9RAqD.s 			page 20


 588 00a0 00380240 		.word	1073887232
 589 00a4 00700040 		.word	1073770496
 590              		.cfi_endproc
 591              	.LFE138:
 593              		.section	.rodata.main.str1.4,"aMS",%progbits,1
 594              		.align	2
 595              	.LC0:
 596 0000 2D2D2D2D 		.ascii	"--------------init--------------\012\000"
 596      2D2D2D2D 
 596      2D2D2D2D 
 596      2D2D696E 
 596      69742D2D 
 597              		.global	__aeabi_f2d
 598              		.global	__aeabi_d2f
 599              		.global	__aeabi_ddiv
 600              		.global	__aeabi_d2iz
 601 0022 0000     		.align	2
 602              	.LC1:
 603 0024 61696D5F 		.ascii	"aim_x:%d/1000, aim_y:%d/1000, aim_z:%d/1000, yaw:%d"
 603      783A2564 
 603      2F313030 
 603      302C2061 
 603      696D5F79 
 604 0057 2F313030 		.ascii	"/1000, pitch:%d/1000 \012\000"
 604      302C2070 
 604      69746368 
 604      3A25642F 
 604      31303030 
 605              		.section	.text.main,"ax",%progbits
 606              		.align	1
 607              		.global	main
 608              		.syntax unified
 609              		.thumb
 610              		.thumb_func
 612              	main:
 613              	.LFB137:
  91:Core/Src/main.c ****   /* USER CODE BEGIN 1 */
 614              		.loc 1 91 16 view -0
 615              		.cfi_startproc
 616              		@ args = 0, pretend = 0, frame = 104
 617              		@ frame_needed = 0, uses_anonymous_args = 0
 618 0000 2DE9F04F 		push	{r4, r5, r6, r7, r8, r9, r10, fp, lr}
 619              	.LCFI15:
 620              		.cfi_def_cfa_offset 36
 621              		.cfi_offset 4, -36
 622              		.cfi_offset 5, -32
 623              		.cfi_offset 6, -28
 624              		.cfi_offset 7, -24
 625              		.cfi_offset 8, -20
 626              		.cfi_offset 9, -16
 627              		.cfi_offset 10, -12
 628              		.cfi_offset 11, -8
 629              		.cfi_offset 14, -4
 630 0004 2DED028B 		vpush.64	{d8}
 631              	.LCFI16:
 632              		.cfi_def_cfa_offset 44
 633              		.cfi_offset 80, -44
ARM GAS  C:\Users\lenovo\AppData\Local\Temp\ccC9RAqD.s 			page 21


 634              		.cfi_offset 81, -40
 635 0008 9FB0     		sub	sp, sp, #124
 636              	.LCFI17:
 637              		.cfi_def_cfa_offset 168
  99:Core/Src/main.c **** 
 638              		.loc 1 99 3 view .LVU148
 639 000a FFF7FEFF 		bl	HAL_Init
 640              	.LVL32:
 106:Core/Src/main.c **** 
 641              		.loc 1 106 3 view .LVU149
 642 000e FFF7FEFF 		bl	SystemClock_Config
 643              	.LVL33:
 113:Core/Src/main.c ****   MX_CAN1_Init();
 644              		.loc 1 113 3 view .LVU150
 645 0012 FFF7FEFF 		bl	MX_GPIO_Init
 646              	.LVL34:
 114:Core/Src/main.c ****   MX_I2C2_Init();
 647              		.loc 1 114 3 view .LVU151
 648 0016 FFF7FEFF 		bl	MX_CAN1_Init
 649              	.LVL35:
 115:Core/Src/main.c ****   MX_USART1_UART_Init();
 650              		.loc 1 115 3 view .LVU152
 651 001a FFF7FEFF 		bl	MX_I2C2_Init
 652              	.LVL36:
 116:Core/Src/main.c ****   MX_USB_DEVICE_Init();
 653              		.loc 1 116 3 view .LVU153
 654 001e FFF7FEFF 		bl	MX_USART1_UART_Init
 655              	.LVL37:
 117:Core/Src/main.c ****   MX_USB_DEVICE_Init();
 656              		.loc 1 117 3 view .LVU154
 657 0022 FFF7FEFF 		bl	MX_USB_DEVICE_Init
 658              	.LVL38:
 118:Core/Src/main.c ****   /* USER CODE BEGIN 2 */
 659              		.loc 1 118 3 view .LVU155
 660 0026 FFF7FEFF 		bl	MX_USB_DEVICE_Init
 661              	.LVL39:
 121:Core/Src/main.c ****   my_can_filter_init_recv_all(&hcan1);
 662              		.loc 1 121 3 view .LVU156
 663 002a 664C     		ldr	r4, .L40
 664 002c 2046     		mov	r0, r4
 665 002e FFF7FEFF 		bl	HAL_CAN_Start
 666              	.LVL40:
 122:Core/Src/main.c ****   HAL_CAN_ActivateNotification(&hcan1,
 667              		.loc 1 122 3 view .LVU157
 668 0032 2046     		mov	r0, r4
 669 0034 FFF7FEFF 		bl	my_can_filter_init_recv_all
 670              	.LVL41:
 123:Core/Src/main.c ****                                CAN_IT_RX_FIFO0_MSG_PENDING); // enable IT
 671              		.loc 1 123 3 view .LVU158
 672 0038 0221     		movs	r1, #2
 673 003a 2046     		mov	r0, r4
 674 003c FFF7FEFF 		bl	HAL_CAN_ActivateNotification
 675              	.LVL42:
 131:Core/Src/main.c ****   motor_pid[0].f_param_init(&motor_pid[0], PID_Speed, CURRENT_LIMIT, 5000, 0, 0,
 676              		.loc 1 131 3 view .LVU159
 677 0040 614F     		ldr	r7, .L40+4
 678 0042 3846     		mov	r0, r7
ARM GAS  C:\Users\lenovo\AppData\Local\Temp\ccC9RAqD.s 			page 22


 679 0044 FFF7FEFF 		bl	pid_init
 680              	.LVL43:
 132:Core/Src/main.c ****                             0, 8000, 61.4656753, 0.6697404, 0);
 681              		.loc 1 132 3 view .LVU160
 132:Core/Src/main.c ****                             0, 8000, 61.4656753, 0.6697404, 0);
 682              		.loc 1 132 15 is_stmt 0 view .LVU161
 683 0048 BD6D     		ldr	r5, [r7, #88]
 132:Core/Src/main.c ****                             0, 8000, 61.4656753, 0.6697404, 0);
 684              		.loc 1 132 3 view .LVU162
 685 004a 9FED608A 		vldr.32	s16, .L40+8
 686 004e 4FF4FA59 		mov	r9, #8000
 687 0052 CDF80890 		str	r9, [sp, #8]
 688 0056 0024     		movs	r4, #0
 689 0058 0194     		str	r4, [sp, #4]
 690 005a 0094     		str	r4, [sp]
 691 005c F0EE481A 		vmov.f32	s3, s16
 692 0060 9FED5B1A 		vldr.32	s2, .L40+12
 693 0064 DFED5B0A 		vldr.32	s1, .L40+16
 694 0068 B0EE480A 		vmov.f32	s0, s16
 695 006c 41F28833 		movw	r3, #5000
 696 0070 4FF4FA62 		mov	r2, #2000
 697 0074 0121     		movs	r1, #1
 698 0076 3846     		mov	r0, r7
 699 0078 A847     		blx	r5
 700              	.LVL44:
 134:Core/Src/main.c ****   angle_pid[0].f_param_init(&angle_pid[0], PID_Speed, 300, 300, 0, 0, 4000, 0,
 701              		.loc 1 134 3 is_stmt 1 view .LVU163
 702 007a DFF894B1 		ldr	fp, .L40+76
 703 007e 5846     		mov	r0, fp
 704 0080 FFF7FEFF 		bl	pid_init
 705              	.LVL45:
 135:Core/Src/main.c ****                             1.3713, 0.00495369, 94.8474 * 0);
 706              		.loc 1 135 3 view .LVU164
 135:Core/Src/main.c ****                             1.3713, 0.00495369, 94.8474 * 0);
 707              		.loc 1 135 15 is_stmt 0 view .LVU165
 708 0084 DBF85850 		ldr	r5, [fp, #88]
 135:Core/Src/main.c ****                             1.3713, 0.00495369, 94.8474 * 0);
 709              		.loc 1 135 3 view .LVU166
 710 0088 0294     		str	r4, [sp, #8]
 711 008a 4FF47A68 		mov	r8, #4000
 712 008e CDF80480 		str	r8, [sp, #4]
 713 0092 0094     		str	r4, [sp]
 714 0094 F0EE481A 		vmov.f32	s3, s16
 715 0098 9FED4F1A 		vldr.32	s2, .L40+20
 716 009c DFED4F0A 		vldr.32	s1, .L40+24
 717 00a0 B0EE480A 		vmov.f32	s0, s16
 718 00a4 4FF49673 		mov	r3, #300
 719 00a8 1A46     		mov	r2, r3
 720 00aa 0121     		movs	r1, #1
 721 00ac 5846     		mov	r0, fp
 722 00ae A847     		blx	r5
 723              	.LVL46:
 137:Core/Src/main.c ****   abs_pid[0].f_param_init(&abs_pid[0], PID_Speed, 300, 300, 0, 0, 4000, 0, -0.9,
 724              		.loc 1 137 3 is_stmt 1 view .LVU167
 725 00b0 4B4D     		ldr	r5, .L40+28
 726 00b2 2846     		mov	r0, r5
 727 00b4 FFF7FEFF 		bl	pid_init
ARM GAS  C:\Users\lenovo\AppData\Local\Temp\ccC9RAqD.s 			page 23


 728              	.LVL47:
 138:Core/Src/main.c ****                           -0.003, -3);
 729              		.loc 1 138 3 view .LVU168
 730 00b8 0294     		str	r4, [sp, #8]
 731 00ba CDF80480 		str	r8, [sp, #4]
 732 00be 0094     		str	r4, [sp]
 733 00c0 F8EE081A 		vmov.f32	s3, #-3.0e+0
 734 00c4 9FED471A 		vldr.32	s2, .L40+32
 735 00c8 DFED470A 		vldr.32	s1, .L40+36
 736 00cc B0EE480A 		vmov.f32	s0, s16
 737 00d0 4FF49673 		mov	r3, #300
 738 00d4 1A46     		mov	r2, r3
 739 00d6 0121     		movs	r1, #1
 740 00d8 2846     		mov	r0, r5
 741 00da AE6D     		ldr	r6, [r5, #88]
 742 00dc B047     		blx	r6
 743              	.LVL48:
 142:Core/Src/main.c ****   motor_pid[1].f_param_init(&motor_pid[1], PID_Speed, CURRENT_LIMIT, 5000, 0, 0,
 744              		.loc 1 142 3 view .LVU169
 745 00de 07F1640A 		add	r10, r7, #100
 746 00e2 5046     		mov	r0, r10
 747 00e4 FFF7FEFF 		bl	pid_init
 748              	.LVL49:
 143:Core/Src/main.c ****                             0, 8000, 4.01239768, 3.0348503, 0);
 749              		.loc 1 143 3 view .LVU170
 143:Core/Src/main.c ****                             0, 8000, 4.01239768, 3.0348503, 0);
 750              		.loc 1 143 15 is_stmt 0 view .LVU171
 751 00e8 D7F8BC70 		ldr	r7, [r7, #188]
 143:Core/Src/main.c ****                             0, 8000, 4.01239768, 3.0348503, 0);
 752              		.loc 1 143 3 view .LVU172
 753 00ec CDF80890 		str	r9, [sp, #8]
 754 00f0 0194     		str	r4, [sp, #4]
 755 00f2 0094     		str	r4, [sp]
 756 00f4 F0EE481A 		vmov.f32	s3, s16
 757 00f8 9FED3C1A 		vldr.32	s2, .L40+40
 758 00fc DFED3C0A 		vldr.32	s1, .L40+44
 759 0100 B0EE480A 		vmov.f32	s0, s16
 760 0104 41F28833 		movw	r3, #5000
 761 0108 4FF4FA62 		mov	r2, #2000
 762 010c 0121     		movs	r1, #1
 763 010e 5046     		mov	r0, r10
 764 0110 B847     		blx	r7
 765              	.LVL50:
 145:Core/Src/main.c ****   angle_pid[1].f_param_init(&angle_pid[1], PID_Speed, 500, 500, 0, 0, 4000, 0,
 766              		.loc 1 145 3 is_stmt 1 view .LVU173
 767 0112 0BF16407 		add	r7, fp, #100
 768 0116 3846     		mov	r0, r7
 769 0118 FFF7FEFF 		bl	pid_init
 770              	.LVL51:
 146:Core/Src/main.c ****                             1.27137, 0.01084, 27.877753 * 0.4);
 771              		.loc 1 146 3 view .LVU174
 146:Core/Src/main.c ****                             1.27137, 0.01084, 27.877753 * 0.4);
 772              		.loc 1 146 15 is_stmt 0 view .LVU175
 773 011c DBF8BC60 		ldr	r6, [fp, #188]
 146:Core/Src/main.c ****                             1.27137, 0.01084, 27.877753 * 0.4);
 774              		.loc 1 146 3 view .LVU176
 775 0120 0294     		str	r4, [sp, #8]
ARM GAS  C:\Users\lenovo\AppData\Local\Temp\ccC9RAqD.s 			page 24


 776 0122 CDF80480 		str	r8, [sp, #4]
 777 0126 0094     		str	r4, [sp]
 778 0128 DFED321A 		vldr.32	s3, .L40+48
 779 012c 9FED321A 		vldr.32	s2, .L40+52
 780 0130 DFED320A 		vldr.32	s1, .L40+56
 781 0134 B0EE480A 		vmov.f32	s0, s16
 782 0138 4FF4FA73 		mov	r3, #500
 783 013c 1A46     		mov	r2, r3
 784 013e 0121     		movs	r1, #1
 785 0140 3846     		mov	r0, r7
 786 0142 B047     		blx	r6
 787              	.LVL52:
 148:Core/Src/main.c ****   abs_pid[1].f_param_init(&abs_pid[1], PID_Speed, 300, 300, 0, 0, 4000, 0, 0.5,
 788              		.loc 1 148 3 is_stmt 1 view .LVU177
 789 0144 05F16406 		add	r6, r5, #100
 790 0148 3046     		mov	r0, r6
 791 014a FFF7FEFF 		bl	pid_init
 792              	.LVL53:
 149:Core/Src/main.c ****                           0, 10);
 793              		.loc 1 149 3 view .LVU178
 149:Core/Src/main.c ****                           0, 10);
 794              		.loc 1 149 13 is_stmt 0 view .LVU179
 795 014e D5F8BC50 		ldr	r5, [r5, #188]
 149:Core/Src/main.c ****                           0, 10);
 796              		.loc 1 149 3 view .LVU180
 797 0152 0294     		str	r4, [sp, #8]
 798 0154 CDF80480 		str	r8, [sp, #4]
 799 0158 0094     		str	r4, [sp]
 800 015a F2EE041A 		vmov.f32	s3, #1.0e+1
 801 015e B0EE481A 		vmov.f32	s2, s16
 802 0162 F6EE000A 		vmov.f32	s1, #5.0e-1
 803 0166 B0EE480A 		vmov.f32	s0, s16
 804 016a 4FF49673 		mov	r3, #300
 805 016e 1A46     		mov	r2, r3
 806 0170 0121     		movs	r1, #1
 807 0172 3046     		mov	r0, r6
 808 0174 A847     		blx	r5
 809              	.LVL54:
 152:Core/Src/main.c ****   HAL_I2C_Slave_Receive_IT(&hi2c2, ReceiveBuffer, sizeof(ReceiveBuffer));
 810              		.loc 1 152 3 is_stmt 1 view .LVU181
 811 0176 2249     		ldr	r1, .L40+60
 812 0178 2248     		ldr	r0, .L40+64
 813 017a FFF7FEFF 		bl	cprintf
 814              	.LVL55:
 153:Core/Src/main.c **** 
 815              		.loc 1 153 3 view .LVU182
 816 017e 0622     		movs	r2, #6
 817 0180 2149     		ldr	r1, .L40+68
 818 0182 2248     		ldr	r0, .L40+72
 819 0184 FFF7FEFF 		bl	HAL_I2C_Slave_Receive_IT
 820              	.LVL56:
 155:Core/Src/main.c ****   sp.header = 0x5a;
 821              		.loc 1 155 3 view .LVU183
 156:Core/Src/main.c ****   sp.detect_color = 1;
 822              		.loc 1 156 3 view .LVU184
 156:Core/Src/main.c ****   sp.detect_color = 1;
 823              		.loc 1 156 13 is_stmt 0 view .LVU185
ARM GAS  C:\Users\lenovo\AppData\Local\Temp\ccC9RAqD.s 			page 25


 824 0188 5A23     		movs	r3, #90
 825 018a 8DF85C30 		strb	r3, [sp, #92]
 157:Core/Src/main.c ****   sp.reset_tracker = 0;
 826              		.loc 1 157 3 is_stmt 1 view .LVU186
 157:Core/Src/main.c ****   sp.reset_tracker = 0;
 827              		.loc 1 157 19 is_stmt 0 view .LVU187
 828 018e 9DF85D30 		ldrb	r3, [sp, #93]	@ zero_extendqisi2
 829 0192 43F00103 		orr	r3, r3, #1
 830 0196 8DF85D30 		strb	r3, [sp, #93]
 158:Core/Src/main.c ****   sp.checksum = 0;
 831              		.loc 1 158 3 is_stmt 1 view .LVU188
 158:Core/Src/main.c ****   sp.checksum = 0;
 832              		.loc 1 158 20 is_stmt 0 view .LVU189
 833 019a DBB2     		uxtb	r3, r3
 834 019c 64F34103 		bfi	r3, r4, #1, #1
 835 01a0 8DF85D30 		strb	r3, [sp, #93]
 159:Core/Src/main.c ****   ReceivePacket rp = {0};
 836              		.loc 1 159 3 is_stmt 1 view .LVU190
 159:Core/Src/main.c ****   ReceivePacket rp = {0};
 837              		.loc 1 159 15 is_stmt 0 view .LVU191
 838 01a4 ADF87640 		strh	r4, [sp, #118]	@ movhi
 160:Core/Src/main.c ****   uint32_t size = SEND_PKG_SIZE;
 839              		.loc 1 160 3 is_stmt 1 view .LVU192
 160:Core/Src/main.c ****   uint32_t size = SEND_PKG_SIZE;
 840              		.loc 1 160 17 is_stmt 0 view .LVU193
 841 01a8 3022     		movs	r2, #48
 842 01aa 2146     		mov	r1, r4
 843 01ac 0BA8     		add	r0, sp, #44
 844 01ae FFF7FEFF 		bl	memset
 845              	.LVL57:
 161:Core/Src/main.c **** 	Vec3d aim_pos = {0};
 846              		.loc 1 161 3 is_stmt 1 view .LVU194
 161:Core/Src/main.c **** 	Vec3d aim_pos = {0};
 847              		.loc 1 161 12 is_stmt 0 view .LVU195
 848 01b2 1C23     		movs	r3, #28
 849 01b4 0A93     		str	r3, [sp, #40]
 162:Core/Src/main.c **** 	float yaw,pitch;
 850              		.loc 1 162 2 is_stmt 1 view .LVU196
 162:Core/Src/main.c **** 	float yaw,pitch;
 851              		.loc 1 162 8 is_stmt 0 view .LVU197
 852 01b6 0494     		str	r4, [sp, #16]
 853 01b8 0594     		str	r4, [sp, #20]
 854 01ba 0694     		str	r4, [sp, #24]
 855 01bc 0794     		str	r4, [sp, #28]
 856 01be 0894     		str	r4, [sp, #32]
 857 01c0 0994     		str	r4, [sp, #36]
 163:Core/Src/main.c **** 	int nan_f = 0;
 858              		.loc 1 163 2 is_stmt 1 view .LVU198
 164:Core/Src/main.c **** 
 859              		.loc 1 164 2 view .LVU199
 860              	.LVL58:
 164:Core/Src/main.c **** 
 861              		.loc 1 164 2 is_stmt 0 view .LVU200
 862 01c2 38E0     		b	.L33
 863              	.L41:
 864              		.align	2
 865              	.L40:
ARM GAS  C:\Users\lenovo\AppData\Local\Temp\ccC9RAqD.s 			page 26


 866 01c4 00000000 		.word	hcan1
 867 01c8 00000000 		.word	motor_pid
 868 01cc 00000000 		.word	0
 869 01d0 1B742B3F 		.word	1059812379
 870 01d4 DADC7542 		.word	1115020506
 871 01d8 9052A23B 		.word	1000493712
 872 01dc C286AF3F 		.word	1068467906
 873 01e0 00000000 		.word	abs_pid
 874 01e4 A69B44BB 		.word	-1153131610
 875 01e8 666666BF 		.word	-1083808154
 876 01ec FD3A4240 		.word	1078082301
 877 01f0 90658040 		.word	1082156432
 878 01f4 E96A3241 		.word	1093823209
 879 01f8 419A313C 		.word	1009883713
 880 01fc 41BCA23F 		.word	1067629633
 881 0200 00000000 		.word	.LC0
 882 0204 00000000 		.word	huart1
 883 0208 00000000 		.word	.LANCHOR0
 884 020c 00000000 		.word	hi2c2
 885 0210 00000000 		.word	angle_pid
 886              	.LVL59:
 887              	.L37:
 888              	.LBB9:
 197:Core/Src/main.c **** 				ABS_Gimbal_angle[0] = 8191;
 889              		.loc 1 197 8 is_stmt 1 view .LVU201
 199:Core/Src/main.c **** 				nan_f = 1;
 890              		.loc 1 199 8 view .LVU202
 199:Core/Src/main.c **** 				nan_f = 1;
 891              		.loc 1 199 10 is_stmt 0 view .LVU203
 892 0214 F4EE677A 		vcmp.f32	s15, s15
 893 0218 F1EE10FA 		vmrs	APSR_nzcv, FPSCR
 894 021c 80F1CC80 		bvs	.L39
 202:Core/Src/main.c **** 
 895              		.loc 1 202 16 view .LVU204
 896 0220 0024     		movs	r4, #0
 897              	.LVL60:
 898              	.L32:
 204:Core/Src/main.c **** 				//ABS_Gimbal_angle[0]= yaw /(2*M_PI) *8192;
 899              		.loc 1 204 3 is_stmt 1 view .LVU205
 206:Core/Src/main.c **** 
 900              		.loc 1 206 3 view .LVU206
 212:Core/Src/main.c **** 
 901              		.loc 1 212 3 view .LVU207
 902 0222 FFF7FEFF 		bl	Abs_angle_control_loop
 903              	.LVL61:
 215:Core/Src/main.c ****       HAL_GPIO_TogglePin(LED_GPIO_Port, LED_Pin);
 904              		.loc 1 215 5 view .LVU208
 219:Core/Src/main.c ****     j++;
 905              		.loc 1 219 5 view .LVU209
 219:Core/Src/main.c ****     j++;
 906              		.loc 1 219 6 is_stmt 0 view .LVU210
 907 0226 6A4A     		ldr	r2, .L42+8
 908 0228 1368     		ldr	r3, [r2]
 909 022a 0133     		adds	r3, r3, #1
 910 022c 1360     		str	r3, [r2]
 220:Core/Src/main.c ****   }
 911              		.loc 1 220 5 is_stmt 1 view .LVU211
ARM GAS  C:\Users\lenovo\AppData\Local\Temp\ccC9RAqD.s 			page 27


 220:Core/Src/main.c ****   }
 912              		.loc 1 220 6 is_stmt 0 view .LVU212
 913 022e 694A     		ldr	r2, .L42+12
 914 0230 1368     		ldr	r3, [r2]
 915 0232 0133     		adds	r3, r3, #1
 916 0234 1360     		str	r3, [r2]
 917              	.LBE9:
 166:Core/Src/main.c ****     /* USER CODE END WHILE */
 918              		.loc 1 166 9 is_stmt 1 view .LVU213
 919              	.LVL62:
 920              	.L33:
 166:Core/Src/main.c ****     /* USER CODE END WHILE */
 921              		.loc 1 166 3 view .LVU214
 922              	.LBB10:
 170:Core/Src/main.c ****     fromVector((uint8_t *)buf_r, &rp);
 923              		.loc 1 170 5 view .LVU215
 170:Core/Src/main.c ****     fromVector((uint8_t *)buf_r, &rp);
 924              		.loc 1 170 27 is_stmt 0 view .LVU216
 925 0236 684B     		ldr	r3, .L42+16
 926 0238 DB68     		ldr	r3, [r3, #12]
 170:Core/Src/main.c ****     fromVector((uint8_t *)buf_r, &rp);
 927              		.loc 1 170 5 view .LVU217
 928 023a 684D     		ldr	r5, .L42+20
 929 023c 0AA9     		add	r1, sp, #40
 930 023e 2846     		mov	r0, r5
 931 0240 9847     		blx	r3
 932              	.LVL63:
 171:Core/Src/main.c **** 		aim_pos.x = rp.x;
 933              		.loc 1 171 5 is_stmt 1 view .LVU218
 934 0242 0BA9     		add	r1, sp, #44
 935 0244 2846     		mov	r0, r5
 936 0246 FFF7FEFF 		bl	fromVector
 937              	.LVL64:
 172:Core/Src/main.c **** 		aim_pos.y = rp.y; 
 938              		.loc 1 172 3 view .LVU219
 172:Core/Src/main.c **** 		aim_pos.y = rp.y; 
 939              		.loc 1 172 17 is_stmt 0 view .LVU220
 940 024a DDF82E00 		ldr	r0, [sp, #46]	@ unaligned
 941 024e FFF7FEFF 		bl	__aeabi_f2d
 942              	.LVL65:
 172:Core/Src/main.c **** 		aim_pos.y = rp.y; 
 943              		.loc 1 172 13 view .LVU221
 944 0252 CDE90401 		strd	r0, [sp, #16]
 173:Core/Src/main.c **** 		aim_pos.z = rp.z;
 945              		.loc 1 173 3 is_stmt 1 view .LVU222
 173:Core/Src/main.c **** 		aim_pos.z = rp.z;
 946              		.loc 1 173 17 is_stmt 0 view .LVU223
 947 0256 DDF83200 		ldr	r0, [sp, #50]	@ unaligned
 948 025a FFF7FEFF 		bl	__aeabi_f2d
 949              	.LVL66:
 173:Core/Src/main.c **** 		aim_pos.z = rp.z;
 950              		.loc 1 173 13 view .LVU224
 951 025e CDE90601 		strd	r0, [sp, #24]
 174:Core/Src/main.c **** 		float l = rc_norm(&aim_pos);
 952              		.loc 1 174 3 is_stmt 1 view .LVU225
 174:Core/Src/main.c **** 		float l = rc_norm(&aim_pos);
 953              		.loc 1 174 17 is_stmt 0 view .LVU226
ARM GAS  C:\Users\lenovo\AppData\Local\Temp\ccC9RAqD.s 			page 28


 954 0262 DDF83600 		ldr	r0, [sp, #54]	@ unaligned
 955 0266 FFF7FEFF 		bl	__aeabi_f2d
 956              	.LVL67:
 174:Core/Src/main.c **** 		float l = rc_norm(&aim_pos);
 957              		.loc 1 174 13 view .LVU227
 958 026a CDE90801 		strd	r0, [sp, #32]
 175:Core/Src/main.c **** 
 959              		.loc 1 175 3 is_stmt 1 view .LVU228
 175:Core/Src/main.c **** 
 960              		.loc 1 175 13 is_stmt 0 view .LVU229
 961 026e 04A8     		add	r0, sp, #16
 962 0270 FFF7FEFF 		bl	rc_norm
 963              	.LVL68:
 964 0274 51EC100B 		vmov	r0, r1, d0
 175:Core/Src/main.c **** 
 965              		.loc 1 175 9 view .LVU230
 966 0278 FFF7FEFF 		bl	__aeabi_d2f
 967              	.LVL69:
 968 027c 0546     		mov	r5, r0	@ float
 969              	.LVL70:
 177:Core/Src/main.c **** 		pitch = asin(aim_pos.z/l);//俯仰角
 970              		.loc 1 177 3 is_stmt 1 view .LVU231
 177:Core/Src/main.c **** 		pitch = asin(aim_pos.z/l);//俯仰角
 971              		.loc 1 177 9 is_stmt 0 view .LVU232
 972 027e DDE90423 		ldrd	r2, [sp, #16]
 973 0282 DDE90601 		ldrd	r0, [sp, #24]
 974              	.LVL71:
 177:Core/Src/main.c **** 		pitch = asin(aim_pos.z/l);//俯仰角
 975              		.loc 1 177 9 view .LVU233
 976 0286 FFF7FEFF 		bl	__aeabi_ddiv
 977              	.LVL72:
 978 028a 41EC100B 		vmov	d0, r0, r1
 979 028e FFF7FEFF 		bl	atan
 980              	.LVL73:
 981 0292 51EC100B 		vmov	r0, r1, d0
 177:Core/Src/main.c **** 		pitch = asin(aim_pos.z/l);//俯仰角
 982              		.loc 1 177 7 view .LVU234
 983 0296 FFF7FEFF 		bl	__aeabi_d2f
 984              	.LVL74:
 985 029a 08EE100A 		vmov	s16, r0
 986              	.LVL75:
 178:Core/Src/main.c ****     float x = 1.0;
 987              		.loc 1 178 3 is_stmt 1 view .LVU235
 178:Core/Src/main.c ****     float x = 1.0;
 988              		.loc 1 178 11 is_stmt 0 view .LVU236
 989 029e 2846     		mov	r0, r5	@ float
 990              	.LVL76:
 178:Core/Src/main.c ****     float x = 1.0;
 991              		.loc 1 178 11 view .LVU237
 992 02a0 FFF7FEFF 		bl	__aeabi_f2d
 993              	.LVL77:
 994 02a4 0246     		mov	r2, r0
 995 02a6 0B46     		mov	r3, r1
 996 02a8 DDE90801 		ldrd	r0, [sp, #32]
 997 02ac FFF7FEFF 		bl	__aeabi_ddiv
 998              	.LVL78:
 999 02b0 41EC100B 		vmov	d0, r0, r1
ARM GAS  C:\Users\lenovo\AppData\Local\Temp\ccC9RAqD.s 			page 29


 1000 02b4 FFF7FEFF 		bl	asin
 1001              	.LVL79:
 1002 02b8 51EC100B 		vmov	r0, r1, d0
 178:Core/Src/main.c ****     float x = 1.0;
 1003              		.loc 1 178 9 view .LVU238
 1004 02bc FFF7FEFF 		bl	__aeabi_d2f
 1005              	.LVL80:
 1006 02c0 08EE900A 		vmov	s17, r0
 1007              	.LVL81:
 179:Core/Src/main.c ****     //printf("%d/1000\n", (int)x*1000);
 1008              		.loc 1 179 5 is_stmt 1 view .LVU239
 182:Core/Src/main.c ****                    (int)aim_pos.x*1000, (int)aim_pos.y*1000, (int)aim_pos.z*1000, (int)yaw*1000, (i
 1009              		.loc 1 182 5 view .LVU240
 1010 02c4 DDE90401 		ldrd	r0, [sp, #16]
 1011              	.LVL82:
 182:Core/Src/main.c ****                    (int)aim_pos.x*1000, (int)aim_pos.y*1000, (int)aim_pos.z*1000, (int)yaw*1000, (i
 1012              		.loc 1 182 5 is_stmt 0 view .LVU241
 1013 02c8 FFF7FEFF 		bl	__aeabi_d2iz
 1014              	.LVL83:
 1015 02cc 0546     		mov	r5, r0
 1016              	.LVL84:
 182:Core/Src/main.c ****                    (int)aim_pos.x*1000, (int)aim_pos.y*1000, (int)aim_pos.z*1000, (int)yaw*1000, (i
 1017              		.loc 1 182 5 view .LVU242
 1018 02ce DDE90601 		ldrd	r0, [sp, #24]
 1019 02d2 FFF7FEFF 		bl	__aeabi_d2iz
 1020              	.LVL85:
 1021 02d6 0646     		mov	r6, r0
 1022 02d8 DDE90801 		ldrd	r0, [sp, #32]
 1023 02dc FFF7FEFF 		bl	__aeabi_d2iz
 1024              	.LVL86:
 1025 02e0 FDEEC87A 		vcvt.s32.f32	s15, s16
 1026 02e4 17EE901A 		vmov	r1, s15	@ int
 1027 02e8 FDEEE88A 		vcvt.s32.f32	s17, s17
 1028              	.LVL87:
 182:Core/Src/main.c ****                    (int)aim_pos.x*1000, (int)aim_pos.y*1000, (int)aim_pos.z*1000, (int)yaw*1000, (i
 1029              		.loc 1 182 5 view .LVU243
 1030 02ec 4FF47A72 		mov	r2, #1000
 1031 02f0 18EE903A 		vmov	r3, s17	@ int
 1032 02f4 02FB03F3 		mul	r3, r2, r3
 1033 02f8 0293     		str	r3, [sp, #8]
 1034 02fa 02FB01F1 		mul	r1, r2, r1
 1035 02fe 0191     		str	r1, [sp, #4]
 1036 0300 02FB00F0 		mul	r0, r2, r0
 1037 0304 0090     		str	r0, [sp]
 1038 0306 02FB06F3 		mul	r3, r2, r6
 1039 030a 05FB02F2 		mul	r2, r5, r2
 1040 030e 3449     		ldr	r1, .L42+24
 1041 0310 3448     		ldr	r0, .L42+28
 1042 0312 FFF7FEFF 		bl	cprintf
 1043              	.LVL88:
 185:Core/Src/main.c **** 		sp.pitch = M_PI * (-IMU_Angle[0] + 180)/180;
 1044              		.loc 1 185 3 is_stmt 1 view .LVU244
 185:Core/Src/main.c **** 		sp.pitch = M_PI * (-IMU_Angle[0] + 180)/180;
 1045              		.loc 1 185 30 is_stmt 0 view .LVU245
 1046 0316 344D     		ldr	r5, .L42+32
 1047 0318 D5ED027A 		vldr.32	s15, [r5, #8]
 185:Core/Src/main.c **** 		sp.pitch = M_PI * (-IMU_Angle[0] + 180)/180;
ARM GAS  C:\Users\lenovo\AppData\Local\Temp\ccC9RAqD.s 			page 30


 1048              		.loc 1 185 33 view .LVU246
 1049 031c 9FED337A 		vldr.32	s14, .L42+36
 1050 0320 77EE677A 		vsub.f32	s15, s14, s15
 1051 0324 17EE900A 		vmov	r0, s15
 1052 0328 FFF7FEFF 		bl	__aeabi_f2d
 1053              	.LVL89:
 185:Core/Src/main.c **** 		sp.pitch = M_PI * (-IMU_Angle[0] + 180)/180;
 1054              		.loc 1 185 17 view .LVU247
 1055 032c 26A3     		adr	r3, .L42
 1056 032e D3E90023 		ldrd	r2, [r3]
 1057 0332 FFF7FEFF 		bl	__aeabi_dmul
 1058              	.LVL90:
 185:Core/Src/main.c **** 		sp.pitch = M_PI * (-IMU_Angle[0] + 180)/180;
 1059              		.loc 1 185 37 view .LVU248
 1060 0336 0022     		movs	r2, #0
 1061 0338 2D4B     		ldr	r3, .L42+40
 1062 033a FFF7FEFF 		bl	__aeabi_ddiv
 1063              	.LVL91:
 1064 033e FFF7FEFF 		bl	__aeabi_d2f
 1065              	.LVL92:
 185:Core/Src/main.c **** 		sp.pitch = M_PI * (-IMU_Angle[0] + 180)/180;
 1066              		.loc 1 185 10 view .LVU249
 1067 0342 CDF86600 		str	r0, [sp, #102]	@ unaligned
 186:Core/Src/main.c **** 		sp.roll = M_PI * IMU_Angle[1]/180;
 1068              		.loc 1 186 3 is_stmt 1 view .LVU250
 186:Core/Src/main.c **** 		sp.roll = M_PI * IMU_Angle[1]/180;
 1069              		.loc 1 186 32 is_stmt 0 view .LVU251
 1070 0346 D5ED007A 		vldr.32	s15, [r5]
 186:Core/Src/main.c **** 		sp.roll = M_PI * IMU_Angle[1]/180;
 1071              		.loc 1 186 36 view .LVU252
 1072 034a 9FED2A7A 		vldr.32	s14, .L42+44
 1073 034e 77EE677A 		vsub.f32	s15, s14, s15
 1074 0352 17EE900A 		vmov	r0, s15
 1075 0356 FFF7FEFF 		bl	__aeabi_f2d
 1076              	.LVL93:
 186:Core/Src/main.c **** 		sp.roll = M_PI * IMU_Angle[1]/180;
 1077              		.loc 1 186 19 view .LVU253
 1078 035a 1BA3     		adr	r3, .L42
 1079 035c D3E90023 		ldrd	r2, [r3]
 1080 0360 FFF7FEFF 		bl	__aeabi_dmul
 1081              	.LVL94:
 186:Core/Src/main.c **** 		sp.roll = M_PI * IMU_Angle[1]/180;
 1082              		.loc 1 186 42 view .LVU254
 1083 0364 0022     		movs	r2, #0
 1084 0366 224B     		ldr	r3, .L42+40
 1085 0368 FFF7FEFF 		bl	__aeabi_ddiv
 1086              	.LVL95:
 1087 036c FFF7FEFF 		bl	__aeabi_d2f
 1088              	.LVL96:
 186:Core/Src/main.c **** 		sp.roll = M_PI * IMU_Angle[1]/180;
 1089              		.loc 1 186 12 view .LVU255
 1090 0370 CDF86200 		str	r0, [sp, #98]	@ unaligned
 187:Core/Src/main.c ****     CDC_Transmit_FS((uint8_t *)&sp, sizeof(struct SendPacket));
 1091              		.loc 1 187 3 is_stmt 1 view .LVU256
 187:Core/Src/main.c ****     CDC_Transmit_FS((uint8_t *)&sp, sizeof(struct SendPacket));
 1092              		.loc 1 187 29 is_stmt 0 view .LVU257
 1093 0374 6868     		ldr	r0, [r5, #4]	@ float
ARM GAS  C:\Users\lenovo\AppData\Local\Temp\ccC9RAqD.s 			page 31


 1094 0376 FFF7FEFF 		bl	__aeabi_f2d
 1095              	.LVL97:
 187:Core/Src/main.c ****     CDC_Transmit_FS((uint8_t *)&sp, sizeof(struct SendPacket));
 1096              		.loc 1 187 18 view .LVU258
 1097 037a 13A3     		adr	r3, .L42
 1098 037c D3E90023 		ldrd	r2, [r3]
 1099 0380 FFF7FEFF 		bl	__aeabi_dmul
 1100              	.LVL98:
 187:Core/Src/main.c ****     CDC_Transmit_FS((uint8_t *)&sp, sizeof(struct SendPacket));
 1101              		.loc 1 187 32 view .LVU259
 1102 0384 0022     		movs	r2, #0
 1103 0386 1A4B     		ldr	r3, .L42+40
 1104 0388 FFF7FEFF 		bl	__aeabi_ddiv
 1105              	.LVL99:
 1106 038c FFF7FEFF 		bl	__aeabi_d2f
 1107              	.LVL100:
 187:Core/Src/main.c ****     CDC_Transmit_FS((uint8_t *)&sp, sizeof(struct SendPacket));
 1108              		.loc 1 187 11 view .LVU260
 1109 0390 CDF85E00 		str	r0, [sp, #94]	@ unaligned
 188:Core/Src/main.c **** 
 1110              		.loc 1 188 5 is_stmt 1 view .LVU261
 1111 0394 1C21     		movs	r1, #28
 1112 0396 17A8     		add	r0, sp, #92
 1113 0398 FFF7FEFF 		bl	CDC_Transmit_FS
 1114              	.LVL101:
 195:Core/Src/main.c **** 				ABS_Gimbal_angle[0] = 0;
 1115              		.loc 1 195 3 view .LVU262
 195:Core/Src/main.c **** 				ABS_Gimbal_angle[0] = 0;
 1116              		.loc 1 195 22 is_stmt 0 view .LVU263
 1117 039c 164B     		ldr	r3, .L42+48
 1118 039e D3ED007A 		vldr.32	s15, [r3]
 195:Core/Src/main.c **** 				ABS_Gimbal_angle[0] = 0;
 1119              		.loc 1 195 5 view .LVU264
 1120 03a2 9FED167A 		vldr.32	s14, .L42+52
 1121 03a6 F4EEC77A 		vcmpe.f32	s15, s14
 1122 03aa F1EE10FA 		vmrs	APSR_nzcv, FPSCR
 1123 03ae FFF631AF 		blt	.L37
 196:Core/Src/main.c **** 		else if(ABS_Gimbal_angle <= 0)
 1124              		.loc 1 196 5 is_stmt 1 view .LVU265
 196:Core/Src/main.c **** 		else if(ABS_Gimbal_angle <= 0)
 1125              		.loc 1 196 25 is_stmt 0 view .LVU266
 1126 03b2 0022     		movs	r2, #0
 1127 03b4 1A60     		str	r2, [r3]	@ float
 1128 03b6 34E7     		b	.L32
 1129              	.L39:
 199:Core/Src/main.c **** 				nan_f = 1;
 1130              		.loc 1 199 38 discriminator 1 view .LVU267
 1131 03b8 24B9     		cbnz	r4, .L35
 200:Core/Src/main.c **** 				ABS_Gimbal_angle[0] = 7500;
 1132              		.loc 1 200 5 is_stmt 1 view .LVU268
 1133              	.LVL102:
 201:Core/Src/main.c **** 		} else nan_f =0;
 1134              		.loc 1 201 5 view .LVU269
 201:Core/Src/main.c **** 		} else nan_f =0;
 1135              		.loc 1 201 25 is_stmt 0 view .LVU270
 1136 03ba 0F4B     		ldr	r3, .L42+48
 1137 03bc 104A     		ldr	r2, .L42+56
ARM GAS  C:\Users\lenovo\AppData\Local\Temp\ccC9RAqD.s 			page 32


 1138 03be 1A60     		str	r2, [r3]	@ float
 200:Core/Src/main.c **** 				ABS_Gimbal_angle[0] = 7500;
 1139              		.loc 1 200 11 view .LVU271
 1140 03c0 0124     		movs	r4, #1
 201:Core/Src/main.c **** 		} else nan_f =0;
 1141              		.loc 1 201 25 view .LVU272
 1142 03c2 2EE7     		b	.L32
 1143              	.LVL103:
 1144              	.L35:
 202:Core/Src/main.c **** 
 1145              		.loc 1 202 16 view .LVU273
 1146 03c4 0024     		movs	r4, #0
 1147              	.LVL104:
 202:Core/Src/main.c **** 
 1148              		.loc 1 202 16 view .LVU274
 1149 03c6 2CE7     		b	.L32
 1150              	.L43:
 1151              		.align	3
 1152              	.L42:
 1153 03c8 182D4454 		.word	1413754136
 1154 03cc FB210940 		.word	1074340347
 1155 03d0 00000000 		.word	i
 1156 03d4 00000000 		.word	j
 1157 03d8 00000000 		.word	USBD_Interface_fops_FS
 1158 03dc 00000000 		.word	.LANCHOR1
 1159 03e0 24000000 		.word	.LC1
 1160 03e4 00000000 		.word	huart1
 1161 03e8 00000000 		.word	IMU_Angle
 1162 03ec 0000B442 		.word	1119092736
 1163 03f0 00806640 		.word	1080459264
 1164 03f4 00003443 		.word	1127481344
 1165 03f8 00000000 		.word	ABS_Gimbal_angle
 1166 03fc 00F8FF45 		.word	1174403072
 1167 0400 0060EA45 		.word	1172987904
 1168              	.LBE10:
 1169              		.cfi_endproc
 1170              	.LFE137:
 1172              		.global	buf_r
 1173              		.global	ReceiveBuffer
 1174              		.section	.bss.ReceiveBuffer,"aw",%nobits
 1175              		.align	2
 1176              		.set	.LANCHOR0,. + 0
 1179              	ReceiveBuffer:
 1180 0000 00000000 		.space	6
 1180      0000
 1181              		.section	.bss.buf_r,"aw",%nobits
 1182              		.align	2
 1183              		.set	.LANCHOR1,. + 0
 1186              	buf_r:
 1187 0000 00000000 		.space	256
 1187      00000000 
 1187      00000000 
 1187      00000000 
 1187      00000000 
 1188              		.text
 1189              	.Letext0:
 1190              		.file 3 "c:\\program files (x86)\\gnu arm embedded toolchain\\10 2021.10\\arm-none-eabi\\include\\
ARM GAS  C:\Users\lenovo\AppData\Local\Temp\ccC9RAqD.s 			page 33


 1191              		.file 4 "c:\\program files (x86)\\gnu arm embedded toolchain\\10 2021.10\\arm-none-eabi\\include\\
 1192              		.file 5 "Drivers/CMSIS/Device/ST/STM32F4xx/Include/stm32f407xx.h"
 1193              		.file 6 "Drivers/CMSIS/Device/ST/STM32F4xx/Include/stm32f4xx.h"
 1194              		.file 7 "Drivers/STM32F4xx_HAL_Driver/Inc/stm32f4xx_hal_def.h"
 1195              		.file 8 "Drivers/STM32F4xx_HAL_Driver/Inc/stm32f4xx_hal_rcc_ex.h"
 1196              		.file 9 "Drivers/STM32F4xx_HAL_Driver/Inc/stm32f4xx_hal_rcc.h"
 1197              		.file 10 "Drivers/STM32F4xx_HAL_Driver/Inc/stm32f4xx_hal_dma.h"
 1198              		.file 11 "Drivers/STM32F4xx_HAL_Driver/Inc/stm32f4xx_hal_can.h"
 1199              		.file 12 "Drivers/STM32F4xx_HAL_Driver/Inc/stm32f4xx_hal_i2c.h"
 1200              		.file 13 "Drivers/STM32F4xx_HAL_Driver/Inc/stm32f4xx_hal_uart.h"
 1201              		.file 14 "Core/Inc/can.h"
 1202              		.file 15 "Core/Inc/i2c.h"
 1203              		.file 16 "Core/Inc/pid.h"
 1204              		.file 17 "c:\\program files (x86)\\gnu arm embedded toolchain\\10 2021.10\\lib\\gcc\\arm-none-eabi
 1205              		.file 18 "c:\\program files (x86)\\gnu arm embedded toolchain\\10 2021.10\\arm-none-eabi\\include\
 1206              		.file 19 "c:\\program files (x86)\\gnu arm embedded toolchain\\10 2021.10\\arm-none-eabi\\include\
 1207              		.file 20 "c:\\program files (x86)\\gnu arm embedded toolchain\\10 2021.10\\arm-none-eabi\\include\
 1208              		.file 21 "c:\\program files (x86)\\gnu arm embedded toolchain\\10 2021.10\\arm-none-eabi\\include\
 1209              		.file 22 "Core/Inc/pid_control_tuning.h"
 1210              		.file 23 "Core/Inc/usart.h"
 1211              		.file 24 "Core/Inc/package.h"
 1212              		.file 25 "Middlewares/ST/STM32_USB_Device_Library/Class/CDC/Inc/usbd_cdc.h"
 1213              		.file 26 "USB_DEVICE/App/usbd_cdc_if.h"
 1214              		.file 27 "c:\\program files (x86)\\gnu arm embedded toolchain\\10 2021.10\\arm-none-eabi\\include\
 1215              		.file 28 "Core/Inc/com.h"
 1216              		.file 29 "Drivers/STM32F4xx_HAL_Driver/Inc/stm32f4xx_hal.h"
 1217              		.file 30 "Core/Inc/gpio.h"
 1218              		.file 31 "USB_DEVICE/App/usb_device.h"
 1219              		.file 32 "Core/Inc/bsp_can.h"
 1220              		.file 33 "<built-in>"
ARM GAS  C:\Users\lenovo\AppData\Local\Temp\ccC9RAqD.s 			page 34

