ARM GAS  /tmp/cct35zmn.s 			page 1


   1              		.cpu cortex-m4
   2              		.arch armv7e-m
   3              		.fpu fpv4-sp-d16
   4              		.eabi_attribute 27, 1
   5              		.eabi_attribute 28, 1
   6              		.eabi_attribute 20, 1
   7              		.eabi_attribute 21, 1
   8              		.eabi_attribute 23, 3
   9              		.eabi_attribute 24, 1
  10              		.eabi_attribute 25, 1
  11              		.eabi_attribute 26, 1
  12              		.eabi_attribute 30, 1
  13              		.eabi_attribute 34, 1
  14              		.eabi_attribute 18, 4
  15              		.file	"pid_control_tuning.c"
  16              		.text
  17              	.Ltext0:
  18              		.cfi_sections	.debug_frame
  19              		.file 1 "Core/Src/pid_control_tuning.c"
  20              		.global	__aeabi_f2d
  21              		.global	__aeabi_dadd
  22              		.global	__aeabi_dmul
  23              		.global	__aeabi_ddiv
  24              		.global	__aeabi_d2iz
  25              		.section	.text.Abs_angle_control_loop,"ax",%progbits
  26              		.align	1
  27              		.global	Abs_angle_control_loop
  28              		.syntax unified
  29              		.thumb
  30              		.thumb_func
  32              	Abs_angle_control_loop:
  33              	.LFB133:
   1:Core/Src/pid_control_tuning.c **** #include "pid_control_tuning.h"
   2:Core/Src/pid_control_tuning.c **** 
   3:Core/Src/pid_control_tuning.c **** PID_TypeDef motor_pid[4]; //速度环参数
   4:Core/Src/pid_control_tuning.c **** PID_TypeDef angle_pid[2]; //位置环参数
   5:Core/Src/pid_control_tuning.c **** PID_TypeDef abs_pid[2];           //绝对角度（自稳，陀螺仪）
   6:Core/Src/pid_control_tuning.c **** 
   7:Core/Src/pid_control_tuning.c **** float ABS_Gimbal_angle[2] = {8200,8100};  //云台绝对角度(自稳) {yaw, pitch}, 0-8192 3400-60
   8:Core/Src/pid_control_tuning.c **** int16_t ABS_IMU_angle[2] = {0};   //归一化之后的IMU角度，用于自稳 {yaw, pitch}, 0-8192
   9:Core/Src/pid_control_tuning.c **** int16_t IMU_Angle_Raw[3] = {0};   //接收到的陀螺仪欧拉角
  10:Core/Src/pid_control_tuning.c **** float IMU_Angle[3] = {0};         //转化为浮点的陀螺仪欧拉角
  11:Core/Src/pid_control_tuning.c **** 
  12:Core/Src/pid_control_tuning.c **** int16_t Gimbal_angle[2] = {0, 0};   //云台角度设定 {yaw, pitch}，编码器
  13:Core/Src/pid_control_tuning.c **** 
  14:Core/Src/pid_control_tuning.c **** 
  15:Core/Src/pid_control_tuning.c **** int i = 0;
  16:Core/Src/pid_control_tuning.c **** int j = 0;
  17:Core/Src/pid_control_tuning.c **** int current = 0;
  18:Core/Src/pid_control_tuning.c **** int speed = 0;
  19:Core/Src/pid_control_tuning.c **** int time = 0;
  20:Core/Src/pid_control_tuning.c **** int speed_set = 0;
  21:Core/Src/pid_control_tuning.c **** 
  22:Core/Src/pid_control_tuning.c **** //陀螺仪位置控制
  23:Core/Src/pid_control_tuning.c **** void Abs_angle_control_loop()
  24:Core/Src/pid_control_tuning.c **** {
  34              		.loc 1 24 1 view -0
ARM GAS  /tmp/cct35zmn.s 			page 2


  35              		.cfi_startproc
  36              		@ args = 0, pretend = 0, frame = 0
  37              		@ frame_needed = 0, uses_anonymous_args = 0
  38 0000 2DE9F041 		push	{r4, r5, r6, r7, r8, lr}
  39              	.LCFI0:
  40              		.cfi_def_cfa_offset 24
  41              		.cfi_offset 4, -24
  42              		.cfi_offset 5, -20
  43              		.cfi_offset 6, -16
  44              		.cfi_offset 7, -12
  45              		.cfi_offset 8, -8
  46              		.cfi_offset 14, -4
  47 0004 82B0     		sub	sp, sp, #8
  48              	.LCFI1:
  49              		.cfi_def_cfa_offset 32
  25:Core/Src/pid_control_tuning.c ****   /*自稳控制*/
  26:Core/Src/pid_control_tuning.c ****   //IMU归一化
  27:Core/Src/pid_control_tuning.c ****   ABS_IMU_angle[0] = (int)((IMU_Angle[2]*8192)/360); //yaw
  50              		.loc 1 27 3 view .LVU1
  51              		.loc 1 27 38 is_stmt 0 view .LVU2
  52 0006 3C4B     		ldr	r3, .L3
  53 0008 93ED027A 		vldr.32	s14, [r3, #8]
  54              		.loc 1 27 41 view .LVU3
  55 000c DFED3B7A 		vldr.32	s15, .L3+4
  56 0010 27EE277A 		vmul.f32	s14, s14, s15
  57              		.loc 1 27 47 view .LVU4
  58 0014 DFED3A6A 		vldr.32	s13, .L3+8
  59 0018 C7EE267A 		vdiv.f32	s15, s14, s13
  60              		.loc 1 27 22 view .LVU5
  61 001c FDEEE77A 		vcvt.s32.f32	s15, s15
  62              		.loc 1 27 20 view .LVU6
  63 0020 17EE902A 		vmov	r2, s15	@ int
  64 0024 14B2     		sxth	r4, r2
  65 0026 374E     		ldr	r6, .L3+12
  66 0028 3480     		strh	r4, [r6]	@ movhi
  28:Core/Src/pid_control_tuning.c ****   ABS_IMU_angle[1] = (int)(((IMU_Angle[0]+180.0)*8192)/360); //pitch
  67              		.loc 1 28 3 is_stmt 1 view .LVU7
  68              		.loc 1 28 39 is_stmt 0 view .LVU8
  69 002a 1868     		ldr	r0, [r3]	@ float
  70 002c FFF7FEFF 		bl	__aeabi_f2d
  71              	.LVL0:
  72              		.loc 1 28 42 view .LVU9
  73 0030 0022     		movs	r2, #0
  74 0032 354B     		ldr	r3, .L3+16
  75 0034 FFF7FEFF 		bl	__aeabi_dadd
  76              	.LVL1:
  77              		.loc 1 28 49 view .LVU10
  78 0038 0022     		movs	r2, #0
  79 003a 344B     		ldr	r3, .L3+20
  80 003c FFF7FEFF 		bl	__aeabi_dmul
  81              	.LVL2:
  82              		.loc 1 28 55 view .LVU11
  83 0040 0022     		movs	r2, #0
  84 0042 334B     		ldr	r3, .L3+24
  85 0044 FFF7FEFF 		bl	__aeabi_ddiv
  86              	.LVL3:
  87              		.loc 1 28 22 view .LVU12
ARM GAS  /tmp/cct35zmn.s 			page 3


  88 0048 FFF7FEFF 		bl	__aeabi_d2iz
  89              	.LVL4:
  90              		.loc 1 28 20 view .LVU13
  91 004c 7080     		strh	r0, [r6, #2]	@ movhi
  29:Core/Src/pid_control_tuning.c ****   //YAW计算
  30:Core/Src/pid_control_tuning.c ****   int motor_ID = 0;
  92              		.loc 1 30 3 is_stmt 1 view .LVU14
  93              	.LVL5:
  31:Core/Src/pid_control_tuning.c ****   abs_pid[motor_ID].target = ABS_Gimbal_angle[0];
  94              		.loc 1 31 3 view .LVU15
  95              		.loc 1 31 46 is_stmt 0 view .LVU16
  96 004e DFF8D480 		ldr	r8, .L3+44
  97 0052 D8F80030 		ldr	r3, [r8]	@ float
  98              		.loc 1 31 28 view .LVU17
  99 0056 2F4D     		ldr	r5, .L3+28
 100 0058 6B60     		str	r3, [r5, #4]	@ float
  32:Core/Src/pid_control_tuning.c ****   abs_pid[motor_ID].f_cal_pid(&abs_pid[motor_ID], ABS_IMU_angle[motor_ID], 8192);
 101              		.loc 1 32 3 is_stmt 1 view .LVU18
 102              		.loc 1 32 20 is_stmt 0 view .LVU19
 103 005a 2B6E     		ldr	r3, [r5, #96]
 104              		.loc 1 32 3 view .LVU20
 105 005c 4FF40051 		mov	r1, #8192
 106 0060 07EE904A 		vmov	s15, r4	@ int
 107 0064 B8EEE70A 		vcvt.f32.s32	s0, s15
 108 0068 2846     		mov	r0, r5
 109 006a 9847     		blx	r3
 110              	.LVL6:
  33:Core/Src/pid_control_tuning.c ****   motor_pid[motor_ID].target = abs_pid[motor_ID].output; 																							
 111              		.loc 1 33 3 is_stmt 1 view .LVU21
 112              		.loc 1 33 49 is_stmt 0 view .LVU22
 113 006c 2B6B     		ldr	r3, [r5, #48]	@ float
 114              		.loc 1 33 30 view .LVU23
 115 006e 2A4C     		ldr	r4, .L3+32
 116 0070 6360     		str	r3, [r4, #4]	@ float
  34:Core/Src/pid_control_tuning.c ****   motor_pid[motor_ID].f_cal_pid(&motor_pid[motor_ID],moto_chassis[motor_ID].speed_rpm, 0);
 117              		.loc 1 34 3 is_stmt 1 view .LVU24
 118              		.loc 1 34 22 is_stmt 0 view .LVU25
 119 0072 236E     		ldr	r3, [r4, #96]
 120              		.loc 1 34 76 view .LVU26
 121 0074 294F     		ldr	r7, .L3+36
 122 0076 B7F90020 		ldrsh	r2, [r7]
 123 007a 00EE102A 		vmov	s0, r2	@ int
 124              		.loc 1 34 3 view .LVU27
 125 007e 0021     		movs	r1, #0
 126 0080 B8EEC00A 		vcvt.f32.s32	s0, s0
 127 0084 2046     		mov	r0, r4
 128 0086 9847     		blx	r3
 129              	.LVL7:
  35:Core/Src/pid_control_tuning.c **** 
  36:Core/Src/pid_control_tuning.c ****   //PITCH计算
  37:Core/Src/pid_control_tuning.c ****   motor_ID = 1;
 130              		.loc 1 37 3 is_stmt 1 view .LVU28
  38:Core/Src/pid_control_tuning.c ****   abs_pid[motor_ID].target = ABS_Gimbal_angle[1];
 131              		.loc 1 38 3 view .LVU29
 132              		.loc 1 38 46 is_stmt 0 view .LVU30
 133 0088 D8F80430 		ldr	r3, [r8, #4]	@ float
 134              		.loc 1 38 28 view .LVU31
ARM GAS  /tmp/cct35zmn.s 			page 4


 135 008c AB66     		str	r3, [r5, #104]	@ float
  39:Core/Src/pid_control_tuning.c ****   abs_pid[motor_ID].f_cal_pid(&abs_pid[motor_ID], ABS_IMU_angle[motor_ID], 8192);
 136              		.loc 1 39 3 is_stmt 1 view .LVU32
 137              		.loc 1 39 20 is_stmt 0 view .LVU33
 138 008e D5F8C430 		ldr	r3, [r5, #196]
 139              		.loc 1 39 64 view .LVU34
 140 0092 B6F90220 		ldrsh	r2, [r6, #2]
 141 0096 00EE102A 		vmov	s0, r2	@ int
 142              		.loc 1 39 3 view .LVU35
 143 009a 4FF40051 		mov	r1, #8192
 144 009e B8EEC00A 		vcvt.f32.s32	s0, s0
 145 00a2 05F16400 		add	r0, r5, #100
 146 00a6 9847     		blx	r3
 147              	.LVL8:
  40:Core/Src/pid_control_tuning.c ****   motor_pid[motor_ID].target = abs_pid[motor_ID].output; 																							
 148              		.loc 1 40 3 is_stmt 1 view .LVU36
 149              		.loc 1 40 49 is_stmt 0 view .LVU37
 150 00a8 D5F89430 		ldr	r3, [r5, #148]	@ float
 151              		.loc 1 40 30 view .LVU38
 152 00ac A366     		str	r3, [r4, #104]	@ float
  41:Core/Src/pid_control_tuning.c ****   motor_pid[motor_ID].f_cal_pid(&motor_pid[motor_ID],moto_chassis[motor_ID].speed_rpm, 0);
 153              		.loc 1 41 3 is_stmt 1 view .LVU39
 154              		.loc 1 41 22 is_stmt 0 view .LVU40
 155 00ae D4F8C430 		ldr	r3, [r4, #196]
 156              		.loc 1 41 76 view .LVU41
 157 00b2 B7F93020 		ldrsh	r2, [r7, #48]
 158 00b6 00EE102A 		vmov	s0, r2	@ int
 159              		.loc 1 41 3 view .LVU42
 160 00ba 0021     		movs	r1, #0
 161 00bc B8EEC00A 		vcvt.f32.s32	s0, s0
 162 00c0 04F16400 		add	r0, r4, #100
 163 00c4 9847     		blx	r3
 164              	.LVL9:
  42:Core/Src/pid_control_tuning.c **** 
  43:Core/Src/pid_control_tuning.c **** 
  44:Core/Src/pid_control_tuning.c ****   set_moto_current(&hcan1, motor_pid[0].output, motor_pid[1].output, 0, 0);
 165              		.loc 1 44 3 is_stmt 1 view .LVU43
 166              		.loc 1 44 40 is_stmt 0 view .LVU44
 167 00c6 D4ED0C7A 		vldr.32	s15, [r4, #48]
 168              		.loc 1 44 61 view .LVU45
 169 00ca 94ED257A 		vldr.32	s14, [r4, #148]
 170              		.loc 1 44 3 view .LVU46
 171 00ce BDEEC77A 		vcvt.s32.f32	s14, s14
 172 00d2 FDEEE77A 		vcvt.s32.f32	s15, s15
 173 00d6 0023     		movs	r3, #0
 174 00d8 0093     		str	r3, [sp]
 175 00da 17EE102A 		vmov	r2, s14	@ int
 176 00de 12B2     		sxth	r2, r2
 177 00e0 17EE901A 		vmov	r1, s15	@ int
 178 00e4 09B2     		sxth	r1, r1
 179 00e6 0E48     		ldr	r0, .L3+40
 180 00e8 FFF7FEFF 		bl	set_moto_current
 181              	.LVL10:
  45:Core/Src/pid_control_tuning.c ****   /**printf("%d, %d\n", moto_chassis[motor_ID].angle, ABS_IMU_angle[motor_ID]);*/
  46:Core/Src/pid_control_tuning.c ****   HAL_Delay(1);
 182              		.loc 1 46 3 is_stmt 1 view .LVU47
 183 00ec 0120     		movs	r0, #1
ARM GAS  /tmp/cct35zmn.s 			page 5


 184 00ee FFF7FEFF 		bl	HAL_Delay
 185              	.LVL11:
  47:Core/Src/pid_control_tuning.c **** }
 186              		.loc 1 47 1 is_stmt 0 view .LVU48
 187 00f2 02B0     		add	sp, sp, #8
 188              	.LCFI2:
 189              		.cfi_def_cfa_offset 24
 190              		@ sp needed
 191 00f4 BDE8F081 		pop	{r4, r5, r6, r7, r8, pc}
 192              	.L4:
 193              		.align	2
 194              	.L3:
 195 00f8 00000000 		.word	IMU_Angle
 196 00fc 00000046 		.word	1174405120
 197 0100 0000B443 		.word	1135869952
 198 0104 00000000 		.word	ABS_IMU_angle
 199 0108 00806640 		.word	1080459264
 200 010c 0000C040 		.word	1086324736
 201 0110 00807640 		.word	1081507840
 202 0114 00000000 		.word	abs_pid
 203 0118 00000000 		.word	motor_pid
 204 011c 00000000 		.word	moto_chassis
 205 0120 00000000 		.word	hcan1
 206 0124 00000000 		.word	ABS_Gimbal_angle
 207              		.cfi_endproc
 208              	.LFE133:
 210              		.section	.text.Rel_angle_control_loop,"ax",%progbits
 211              		.align	1
 212              		.global	Rel_angle_control_loop
 213              		.syntax unified
 214              		.thumb
 215              		.thumb_func
 217              	Rel_angle_control_loop:
 218              	.LFB134:
  48:Core/Src/pid_control_tuning.c **** 
  49:Core/Src/pid_control_tuning.c **** //编码器位置控制
  50:Core/Src/pid_control_tuning.c **** void Rel_angle_control_loop()
  51:Core/Src/pid_control_tuning.c **** {
 219              		.loc 1 51 1 is_stmt 1 view -0
 220              		.cfi_startproc
 221              		@ args = 0, pretend = 0, frame = 0
 222              		@ frame_needed = 0, uses_anonymous_args = 0
 223 0000 F0B5     		push	{r4, r5, r6, r7, lr}
 224              	.LCFI3:
 225              		.cfi_def_cfa_offset 20
 226              		.cfi_offset 4, -20
 227              		.cfi_offset 5, -16
 228              		.cfi_offset 6, -12
 229              		.cfi_offset 7, -8
 230              		.cfi_offset 14, -4
 231 0002 83B0     		sub	sp, sp, #12
 232              	.LCFI4:
 233              		.cfi_def_cfa_offset 32
  52:Core/Src/pid_control_tuning.c ****     
  53:Core/Src/pid_control_tuning.c ****     i++;
 234              		.loc 1 53 5 view .LVU50
 235              		.loc 1 53 6 is_stmt 0 view .LVU51
ARM GAS  /tmp/cct35zmn.s 			page 6


 236 0004 454A     		ldr	r2, .L9
 237 0006 1368     		ldr	r3, [r2]
 238 0008 0133     		adds	r3, r3, #1
 239 000a 1360     		str	r3, [r2]
  54:Core/Src/pid_control_tuning.c ****   /*自稳计算*/
  55:Core/Src/pid_control_tuning.c ****   //IMU归一化
  56:Core/Src/pid_control_tuning.c ****   ABS_IMU_angle[0] = (int)(IMU_Angle[2]*(8192/360)); //yaw
 240              		.loc 1 56 3 is_stmt 1 view .LVU52
 241              		.loc 1 56 37 is_stmt 0 view .LVU53
 242 000c 444B     		ldr	r3, .L9+4
 243 000e D3ED027A 		vldr.32	s15, [r3, #8]
 244              		.loc 1 56 40 view .LVU54
 245 0012 B3EE067A 		vmov.f32	s14, #2.2e+1
 246 0016 67EE877A 		vmul.f32	s15, s15, s14
 247              		.loc 1 56 22 view .LVU55
 248 001a FDEEE77A 		vcvt.s32.f32	s15, s15
 249              		.loc 1 56 20 view .LVU56
 250 001e 414C     		ldr	r4, .L9+8
 251 0020 17EE902A 		vmov	r2, s15	@ int
 252 0024 2280     		strh	r2, [r4]	@ movhi
  57:Core/Src/pid_control_tuning.c ****   ABS_IMU_angle[1] = (int)((IMU_Angle[0]+180.0)*(8192/360)); //pitch
 253              		.loc 1 57 3 is_stmt 1 view .LVU57
 254              		.loc 1 57 38 is_stmt 0 view .LVU58
 255 0026 1868     		ldr	r0, [r3]	@ float
 256 0028 FFF7FEFF 		bl	__aeabi_f2d
 257              	.LVL12:
 258              		.loc 1 57 41 view .LVU59
 259 002c 0022     		movs	r2, #0
 260 002e 3E4B     		ldr	r3, .L9+12
 261 0030 FFF7FEFF 		bl	__aeabi_dadd
 262              	.LVL13:
 263              		.loc 1 57 48 view .LVU60
 264 0034 0022     		movs	r2, #0
 265 0036 3D4B     		ldr	r3, .L9+16
 266 0038 FFF7FEFF 		bl	__aeabi_dmul
 267              	.LVL14:
 268              		.loc 1 57 22 view .LVU61
 269 003c FFF7FEFF 		bl	__aeabi_d2iz
 270              	.LVL15:
 271              		.loc 1 57 20 view .LVU62
 272 0040 6080     		strh	r0, [r4, #2]	@ movhi
  58:Core/Src/pid_control_tuning.c **** 
  59:Core/Src/pid_control_tuning.c ****   if(Gimbal_angle[0] > 8191) Gimbal_angle[0] = 0;
 273              		.loc 1 59 3 is_stmt 1 view .LVU63
 274              		.loc 1 59 18 is_stmt 0 view .LVU64
 275 0042 3B4B     		ldr	r3, .L9+20
 276 0044 B3F90030 		ldrsh	r3, [r3]
 277              		.loc 1 59 5 view .LVU65
 278 0048 B3F5005F 		cmp	r3, #8192
 279 004c 5FDB     		blt	.L6
 280              		.loc 1 59 30 is_stmt 1 discriminator 1 view .LVU66
 281              		.loc 1 59 46 is_stmt 0 discriminator 1 view .LVU67
 282 004e 384B     		ldr	r3, .L9+20
 283 0050 0022     		movs	r2, #0
 284 0052 1A80     		strh	r2, [r3]	@ movhi
 285              	.L7:
  60:Core/Src/pid_control_tuning.c ****   else if(Gimbal_angle[0] < 0) Gimbal_angle[0] = 8191;
ARM GAS  /tmp/cct35zmn.s 			page 7


  61:Core/Src/pid_control_tuning.c ****     //用PID计算电流
  62:Core/Src/pid_control_tuning.c ****     //这里用for会有奇怪的问题，暂时展开
  63:Core/Src/pid_control_tuning.c ****     int motor_ID = 0;
 286              		.loc 1 63 5 is_stmt 1 view .LVU68
 287              	.LVL16:
  64:Core/Src/pid_control_tuning.c ****     angle_pid[motor_ID].target = Gimbal_angle[0];
 288              		.loc 1 64 5 view .LVU69
 289              		.loc 1 64 46 is_stmt 0 view .LVU70
 290 0054 364F     		ldr	r7, .L9+20
 291 0056 B7F90030 		ldrsh	r3, [r7]
 292 005a 07EE903A 		vmov	s15, r3	@ int
 293              		.loc 1 64 32 view .LVU71
 294 005e 354D     		ldr	r5, .L9+24
 295 0060 F8EEE77A 		vcvt.f32.s32	s15, s15
 296 0064 C5ED017A 		vstr.32	s15, [r5, #4]
  65:Core/Src/pid_control_tuning.c ****     angle_pid[motor_ID].f_cal_pid(&angle_pid[motor_ID], moto_chassis[motor_ID].angle, 8192);
 297              		.loc 1 65 5 is_stmt 1 view .LVU72
 298              		.loc 1 65 24 is_stmt 0 view .LVU73
 299 0068 2B6E     		ldr	r3, [r5, #96]
 300              		.loc 1 65 79 view .LVU74
 301 006a 334E     		ldr	r6, .L9+28
 302 006c B289     		ldrh	r2, [r6, #12]
 303 006e 00EE102A 		vmov	s0, r2	@ int
 304              		.loc 1 65 5 view .LVU75
 305 0072 4FF40051 		mov	r1, #8192
 306 0076 B8EE400A 		vcvt.f32.u32	s0, s0
 307 007a 2846     		mov	r0, r5
 308 007c 9847     		blx	r3
 309              	.LVL17:
  66:Core/Src/pid_control_tuning.c ****     motor_pid[motor_ID].target = angle_pid[motor_ID].output;
 310              		.loc 1 66 5 is_stmt 1 view .LVU76
 311              		.loc 1 66 53 is_stmt 0 view .LVU77
 312 007e 2B6B     		ldr	r3, [r5, #48]	@ float
 313              		.loc 1 66 32 view .LVU78
 314 0080 2E4C     		ldr	r4, .L9+32
 315 0082 6360     		str	r3, [r4, #4]	@ float
  67:Core/Src/pid_control_tuning.c ****     motor_pid[motor_ID].f_cal_pid(&motor_pid[motor_ID],moto_chassis[motor_ID].speed_rpm, 0);
 316              		.loc 1 67 5 is_stmt 1 view .LVU79
 317              		.loc 1 67 24 is_stmt 0 view .LVU80
 318 0084 236E     		ldr	r3, [r4, #96]
 319              		.loc 1 67 78 view .LVU81
 320 0086 B6F90020 		ldrsh	r2, [r6]
 321 008a 00EE102A 		vmov	s0, r2	@ int
 322              		.loc 1 67 5 view .LVU82
 323 008e 0021     		movs	r1, #0
 324 0090 B8EEC00A 		vcvt.f32.s32	s0, s0
 325 0094 2046     		mov	r0, r4
 326 0096 9847     		blx	r3
 327              	.LVL18:
  68:Core/Src/pid_control_tuning.c **** 
  69:Core/Src/pid_control_tuning.c ****     motor_ID = 1;
 328              		.loc 1 69 5 is_stmt 1 view .LVU83
  70:Core/Src/pid_control_tuning.c ****     angle_pid[motor_ID].target = Gimbal_angle[1];
 329              		.loc 1 70 5 view .LVU84
 330              		.loc 1 70 46 is_stmt 0 view .LVU85
 331 0098 B7F90230 		ldrsh	r3, [r7, #2]
 332 009c 07EE903A 		vmov	s15, r3	@ int
ARM GAS  /tmp/cct35zmn.s 			page 8


 333              		.loc 1 70 32 view .LVU86
 334 00a0 F8EEE77A 		vcvt.f32.s32	s15, s15
 335 00a4 C5ED1A7A 		vstr.32	s15, [r5, #104]
  71:Core/Src/pid_control_tuning.c ****     angle_pid[motor_ID].f_cal_pid(&angle_pid[motor_ID], moto_chassis[motor_ID].angle, 8192);
 336              		.loc 1 71 5 is_stmt 1 view .LVU87
 337              		.loc 1 71 24 is_stmt 0 view .LVU88
 338 00a8 D5F8C430 		ldr	r3, [r5, #196]
 339              		.loc 1 71 79 view .LVU89
 340 00ac B28F     		ldrh	r2, [r6, #60]
 341 00ae 00EE102A 		vmov	s0, r2	@ int
 342              		.loc 1 71 5 view .LVU90
 343 00b2 4FF40051 		mov	r1, #8192
 344 00b6 B8EE400A 		vcvt.f32.u32	s0, s0
 345 00ba 05F16400 		add	r0, r5, #100
 346 00be 9847     		blx	r3
 347              	.LVL19:
  72:Core/Src/pid_control_tuning.c ****     motor_pid[motor_ID].target = angle_pid[motor_ID].output; 																							
 348              		.loc 1 72 5 is_stmt 1 view .LVU91
 349              		.loc 1 72 53 is_stmt 0 view .LVU92
 350 00c0 D5F89430 		ldr	r3, [r5, #148]	@ float
 351              		.loc 1 72 32 view .LVU93
 352 00c4 A366     		str	r3, [r4, #104]	@ float
  73:Core/Src/pid_control_tuning.c ****     motor_pid[motor_ID].f_cal_pid(&motor_pid[motor_ID],moto_chassis[motor_ID].speed_rpm, 0);
 353              		.loc 1 73 5 is_stmt 1 view .LVU94
 354              		.loc 1 73 24 is_stmt 0 view .LVU95
 355 00c6 D4F8C430 		ldr	r3, [r4, #196]
 356              		.loc 1 73 78 view .LVU96
 357 00ca B6F93020 		ldrsh	r2, [r6, #48]
 358 00ce 00EE102A 		vmov	s0, r2	@ int
 359              		.loc 1 73 5 view .LVU97
 360 00d2 0021     		movs	r1, #0
 361 00d4 B8EEC00A 		vcvt.f32.s32	s0, s0
 362 00d8 04F16400 		add	r0, r4, #100
 363 00dc 9847     		blx	r3
 364              	.LVL20:
  74:Core/Src/pid_control_tuning.c **** 
  75:Core/Src/pid_control_tuning.c ****     set_moto_current(&hcan1, motor_pid[0].output, motor_pid[1].output, 0, 0);
 365              		.loc 1 75 5 is_stmt 1 view .LVU98
 366              		.loc 1 75 42 is_stmt 0 view .LVU99
 367 00de D4ED0C7A 		vldr.32	s15, [r4, #48]
 368              		.loc 1 75 63 view .LVU100
 369 00e2 94ED257A 		vldr.32	s14, [r4, #148]
 370              		.loc 1 75 5 view .LVU101
 371 00e6 BDEEC77A 		vcvt.s32.f32	s14, s14
 372 00ea FDEEE77A 		vcvt.s32.f32	s15, s15
 373 00ee 0023     		movs	r3, #0
 374 00f0 0093     		str	r3, [sp]
 375 00f2 17EE102A 		vmov	r2, s14	@ int
 376 00f6 12B2     		sxth	r2, r2
 377 00f8 17EE901A 		vmov	r1, s15	@ int
 378 00fc 09B2     		sxth	r1, r1
 379 00fe 1048     		ldr	r0, .L9+36
 380 0100 FFF7FEFF 		bl	set_moto_current
 381              	.LVL21:
  76:Core/Src/pid_control_tuning.c ****     /**printf("%d, %d\n", moto_chassis[0].angle, moto_chassis[1].angle);*/
  77:Core/Src/pid_control_tuning.c ****     /**printf("%f\n", IMU_Angle[0]);*/
  78:Core/Src/pid_control_tuning.c ****     HAL_Delay(1); //1000hz
ARM GAS  /tmp/cct35zmn.s 			page 9


 382              		.loc 1 78 5 is_stmt 1 view .LVU102
 383 0104 0120     		movs	r0, #1
 384 0106 FFF7FEFF 		bl	HAL_Delay
 385              	.LVL22:
  79:Core/Src/pid_control_tuning.c **** }
 386              		.loc 1 79 1 is_stmt 0 view .LVU103
 387 010a 03B0     		add	sp, sp, #12
 388              	.LCFI5:
 389              		.cfi_remember_state
 390              		.cfi_def_cfa_offset 20
 391              		@ sp needed
 392 010c F0BD     		pop	{r4, r5, r6, r7, pc}
 393              	.LVL23:
 394              	.L6:
 395              	.LCFI6:
 396              		.cfi_restore_state
  60:Core/Src/pid_control_tuning.c ****     //用PID计算电流
 397              		.loc 1 60 8 is_stmt 1 view .LVU104
  60:Core/Src/pid_control_tuning.c ****     //用PID计算电流
 398              		.loc 1 60 10 is_stmt 0 view .LVU105
 399 010e 002B     		cmp	r3, #0
 400 0110 A0DA     		bge	.L7
  60:Core/Src/pid_control_tuning.c ****     //用PID计算电流
 401              		.loc 1 60 32 is_stmt 1 discriminator 1 view .LVU106
  60:Core/Src/pid_control_tuning.c ****     //用PID计算电流
 402              		.loc 1 60 48 is_stmt 0 discriminator 1 view .LVU107
 403 0112 074B     		ldr	r3, .L9+20
 404 0114 41F6FF72 		movw	r2, #8191
 405 0118 1A80     		strh	r2, [r3]	@ movhi
 406 011a 9BE7     		b	.L7
 407              	.L10:
 408              		.align	2
 409              	.L9:
 410 011c 00000000 		.word	i
 411 0120 00000000 		.word	IMU_Angle
 412 0124 00000000 		.word	ABS_IMU_angle
 413 0128 00806640 		.word	1080459264
 414 012c 00003640 		.word	1077280768
 415 0130 00000000 		.word	Gimbal_angle
 416 0134 00000000 		.word	angle_pid
 417 0138 00000000 		.word	moto_chassis
 418 013c 00000000 		.word	motor_pid
 419 0140 00000000 		.word	hcan1
 420              		.cfi_endproc
 421              	.LFE134:
 423              		.section	.text.Abs_angle_PID_test_loop,"ax",%progbits
 424              		.align	1
 425              		.global	Abs_angle_PID_test_loop
 426              		.syntax unified
 427              		.thumb
 428              		.thumb_func
 430              	Abs_angle_PID_test_loop:
 431              	.LVL24:
 432              	.LFB135:
  80:Core/Src/pid_control_tuning.c **** 
  81:Core/Src/pid_control_tuning.c **** //自稳PID效果测试
  82:Core/Src/pid_control_tuning.c **** void Abs_angle_PID_test_loop(int motor_ID)
ARM GAS  /tmp/cct35zmn.s 			page 10


  83:Core/Src/pid_control_tuning.c **** {
 433              		.loc 1 83 1 is_stmt 1 view -0
 434              		.cfi_startproc
 435              		@ args = 0, pretend = 0, frame = 0
 436              		@ frame_needed = 0, uses_anonymous_args = 0
 437              		.loc 1 83 1 is_stmt 0 view .LVU109
 438 0000 F0B5     		push	{r4, r5, r6, r7, lr}
 439              	.LCFI7:
 440              		.cfi_def_cfa_offset 20
 441              		.cfi_offset 4, -20
 442              		.cfi_offset 5, -16
 443              		.cfi_offset 6, -12
 444              		.cfi_offset 7, -8
 445              		.cfi_offset 14, -4
 446 0002 83B0     		sub	sp, sp, #12
 447              	.LCFI8:
 448              		.cfi_def_cfa_offset 32
 449 0004 0446     		mov	r4, r0
  84:Core/Src/pid_control_tuning.c ****   //自稳效果测试
  85:Core/Src/pid_control_tuning.c ****   //IMU归一化
  86:Core/Src/pid_control_tuning.c ****   ABS_IMU_angle[0] = (int)((IMU_Angle[2]*8192)/360); //yaw
 450              		.loc 1 86 3 is_stmt 1 view .LVU110
 451              		.loc 1 86 38 is_stmt 0 view .LVU111
 452 0006 384B     		ldr	r3, .L17
 453 0008 93ED027A 		vldr.32	s14, [r3, #8]
 454              		.loc 1 86 41 view .LVU112
 455 000c DFED377A 		vldr.32	s15, .L17+4
 456 0010 27EE277A 		vmul.f32	s14, s14, s15
 457              		.loc 1 86 47 view .LVU113
 458 0014 DFED366A 		vldr.32	s13, .L17+8
 459 0018 C7EE267A 		vdiv.f32	s15, s14, s13
 460              		.loc 1 86 22 view .LVU114
 461 001c FDEEE77A 		vcvt.s32.f32	s15, s15
 462              		.loc 1 86 20 view .LVU115
 463 0020 344F     		ldr	r7, .L17+12
 464 0022 17EE902A 		vmov	r2, s15	@ int
 465 0026 3A80     		strh	r2, [r7]	@ movhi
  87:Core/Src/pid_control_tuning.c ****   ABS_IMU_angle[1] = (int)(((IMU_Angle[0]+180.0)*8192)/360); //pitch
 466              		.loc 1 87 3 is_stmt 1 view .LVU116
 467              		.loc 1 87 39 is_stmt 0 view .LVU117
 468 0028 1868     		ldr	r0, [r3]	@ float
 469              	.LVL25:
 470              		.loc 1 87 39 view .LVU118
 471 002a FFF7FEFF 		bl	__aeabi_f2d
 472              	.LVL26:
 473              		.loc 1 87 42 view .LVU119
 474 002e 0022     		movs	r2, #0
 475 0030 314B     		ldr	r3, .L17+16
 476 0032 FFF7FEFF 		bl	__aeabi_dadd
 477              	.LVL27:
 478              		.loc 1 87 49 view .LVU120
 479 0036 0022     		movs	r2, #0
 480 0038 304B     		ldr	r3, .L17+20
 481 003a FFF7FEFF 		bl	__aeabi_dmul
 482              	.LVL28:
 483              		.loc 1 87 55 view .LVU121
 484 003e 0022     		movs	r2, #0
ARM GAS  /tmp/cct35zmn.s 			page 11


 485 0040 2F4B     		ldr	r3, .L17+24
 486 0042 FFF7FEFF 		bl	__aeabi_ddiv
 487              	.LVL29:
 488              		.loc 1 87 22 view .LVU122
 489 0046 FFF7FEFF 		bl	__aeabi_d2iz
 490              	.LVL30:
 491              		.loc 1 87 20 view .LVU123
 492 004a 7880     		strh	r0, [r7, #2]	@ movhi
  88:Core/Src/pid_control_tuning.c ****   abs_pid[motor_ID].target = 0;
 493              		.loc 1 88 3 is_stmt 1 view .LVU124
 494              		.loc 1 88 28 is_stmt 0 view .LVU125
 495 004c 6426     		movs	r6, #100
 496 004e 04FB06F6 		mul	r6, r4, r6
 497 0052 2C4D     		ldr	r5, .L17+28
 498 0054 3544     		add	r5, r5, r6
 499 0056 0023     		movs	r3, #0
 500 0058 6B60     		str	r3, [r5, #4]	@ float
  89:Core/Src/pid_control_tuning.c ****   abs_pid[motor_ID].f_cal_pid(&abs_pid[motor_ID], ABS_IMU_angle[motor_ID], 8192);
 501              		.loc 1 89 3 is_stmt 1 view .LVU126
 502              		.loc 1 89 20 is_stmt 0 view .LVU127
 503 005a 2B6E     		ldr	r3, [r5, #96]
 504              		.loc 1 89 64 view .LVU128
 505 005c 37F91420 		ldrsh	r2, [r7, r4, lsl #1]
 506 0060 00EE102A 		vmov	s0, r2	@ int
 507              		.loc 1 89 3 view .LVU129
 508 0064 4FF40051 		mov	r1, #8192
 509 0068 B8EEC00A 		vcvt.f32.s32	s0, s0
 510 006c 2846     		mov	r0, r5
 511 006e 9847     		blx	r3
 512              	.LVL31:
  90:Core/Src/pid_control_tuning.c **** 
  91:Core/Src/pid_control_tuning.c ****   motor_pid[motor_ID].target = abs_pid[motor_ID].output; 																							
 513              		.loc 1 91 3 is_stmt 1 view .LVU130
 514              		.loc 1 91 49 is_stmt 0 view .LVU131
 515 0070 2B6B     		ldr	r3, [r5, #48]	@ float
 516              		.loc 1 91 30 view .LVU132
 517 0072 2548     		ldr	r0, .L17+32
 518 0074 3044     		add	r0, r0, r6
 519 0076 4360     		str	r3, [r0, #4]	@ float
  92:Core/Src/pid_control_tuning.c ****   motor_pid[motor_ID].f_cal_pid(&motor_pid[motor_ID],moto_chassis[motor_ID].speed_rpm, 0);
 520              		.loc 1 92 3 is_stmt 1 view .LVU133
 521              		.loc 1 92 22 is_stmt 0 view .LVU134
 522 0078 026E     		ldr	r2, [r0, #96]
 523              		.loc 1 92 76 view .LVU135
 524 007a 04EB4403 		add	r3, r4, r4, lsl #1
 525 007e 1B01     		lsls	r3, r3, #4
 526 0080 2249     		ldr	r1, .L17+36
 527 0082 CB5E     		ldrsh	r3, [r1, r3]
 528 0084 00EE103A 		vmov	s0, r3	@ int
 529              		.loc 1 92 3 view .LVU136
 530 0088 0021     		movs	r1, #0
 531 008a B8EEC00A 		vcvt.f32.s32	s0, s0
 532 008e 9047     		blx	r2
 533              	.LVL32:
  93:Core/Src/pid_control_tuning.c **** 
  94:Core/Src/pid_control_tuning.c ****   if(motor_ID == 0) set_moto_current(&hcan1, motor_pid[motor_ID].output, 0, 0, 0);
 534              		.loc 1 94 3 is_stmt 1 view .LVU137
ARM GAS  /tmp/cct35zmn.s 			page 12


 535              		.loc 1 94 5 is_stmt 0 view .LVU138
 536 0090 34B1     		cbz	r4, .L15
 537              	.L12:
  95:Core/Src/pid_control_tuning.c ****   if(motor_ID == 1) set_moto_current(&hcan1, 0, motor_pid[motor_ID].output, 0, 0);
 538              		.loc 1 95 3 is_stmt 1 view .LVU139
 539              		.loc 1 95 5 is_stmt 0 view .LVU140
 540 0092 012C     		cmp	r4, #1
 541 0094 16D0     		beq	.L16
 542              	.L13:
  96:Core/Src/pid_control_tuning.c ****   //set_moto_current(&hcan1, 0, 0, 0, 0);
  97:Core/Src/pid_control_tuning.c ****   //printf("%d\n", moto_chassis[0].speed_rpm);
  98:Core/Src/pid_control_tuning.c ****   //printf("%d\n", moto_chassis[0].total_angle);
  99:Core/Src/pid_control_tuning.c ****   //printf("%d, %f, %f\n", ABS_IMU_angle[motor_ID], abs_pid[motor_ID].output, motor_pid[motor_ID].o
 100:Core/Src/pid_control_tuning.c ****   /**printf("%d, %d\n", moto_chassis[motor_ID].angle, ABS_IMU_angle[motor_ID]);*/
 101:Core/Src/pid_control_tuning.c ****   HAL_Delay(1);
 543              		.loc 1 101 3 is_stmt 1 view .LVU141
 544 0096 0120     		movs	r0, #1
 545 0098 FFF7FEFF 		bl	HAL_Delay
 546              	.LVL33:
 102:Core/Src/pid_control_tuning.c **** }
 547              		.loc 1 102 1 is_stmt 0 view .LVU142
 548 009c 03B0     		add	sp, sp, #12
 549              	.LCFI9:
 550              		.cfi_remember_state
 551              		.cfi_def_cfa_offset 20
 552              		@ sp needed
 553 009e F0BD     		pop	{r4, r5, r6, r7, pc}
 554              	.LVL34:
 555              	.L15:
 556              	.LCFI10:
 557              		.cfi_restore_state
  94:Core/Src/pid_control_tuning.c ****   if(motor_ID == 1) set_moto_current(&hcan1, 0, motor_pid[motor_ID].output, 0, 0);
 558              		.loc 1 94 21 is_stmt 1 discriminator 1 view .LVU143
  94:Core/Src/pid_control_tuning.c ****   if(motor_ID == 1) set_moto_current(&hcan1, 0, motor_pid[motor_ID].output, 0, 0);
 559              		.loc 1 94 65 is_stmt 0 discriminator 1 view .LVU144
 560 00a0 194B     		ldr	r3, .L17+32
 561 00a2 6422     		movs	r2, #100
 562 00a4 02FB0433 		mla	r3, r2, r4, r3
 563 00a8 D3ED0C7A 		vldr.32	s15, [r3, #48]
  94:Core/Src/pid_control_tuning.c ****   if(motor_ID == 1) set_moto_current(&hcan1, 0, motor_pid[motor_ID].output, 0, 0);
 564              		.loc 1 94 21 discriminator 1 view .LVU145
 565 00ac FDEEE77A 		vcvt.s32.f32	s15, s15
 566 00b0 0022     		movs	r2, #0
 567 00b2 0092     		str	r2, [sp]
 568 00b4 1346     		mov	r3, r2
 569 00b6 17EE901A 		vmov	r1, s15	@ int
 570 00ba 09B2     		sxth	r1, r1
 571 00bc 1448     		ldr	r0, .L17+40
 572 00be FFF7FEFF 		bl	set_moto_current
 573              	.LVL35:
 574 00c2 E6E7     		b	.L12
 575              	.L16:
  95:Core/Src/pid_control_tuning.c ****   //set_moto_current(&hcan1, 0, 0, 0, 0);
 576              		.loc 1 95 21 is_stmt 1 discriminator 1 view .LVU146
  95:Core/Src/pid_control_tuning.c ****   //set_moto_current(&hcan1, 0, 0, 0, 0);
 577              		.loc 1 95 68 is_stmt 0 discriminator 1 view .LVU147
 578 00c4 104B     		ldr	r3, .L17+32
ARM GAS  /tmp/cct35zmn.s 			page 13


 579 00c6 6422     		movs	r2, #100
 580 00c8 02FB0433 		mla	r3, r2, r4, r3
 581 00cc D3ED0C7A 		vldr.32	s15, [r3, #48]
  95:Core/Src/pid_control_tuning.c ****   //set_moto_current(&hcan1, 0, 0, 0, 0);
 582              		.loc 1 95 21 discriminator 1 view .LVU148
 583 00d0 FDEEE77A 		vcvt.s32.f32	s15, s15
 584 00d4 0021     		movs	r1, #0
 585 00d6 0091     		str	r1, [sp]
 586 00d8 0B46     		mov	r3, r1
 587 00da 17EE902A 		vmov	r2, s15	@ int
 588 00de 12B2     		sxth	r2, r2
 589 00e0 0B48     		ldr	r0, .L17+40
 590 00e2 FFF7FEFF 		bl	set_moto_current
 591              	.LVL36:
 592 00e6 D6E7     		b	.L13
 593              	.L18:
 594              		.align	2
 595              	.L17:
 596 00e8 00000000 		.word	IMU_Angle
 597 00ec 00000046 		.word	1174405120
 598 00f0 0000B443 		.word	1135869952
 599 00f4 00000000 		.word	ABS_IMU_angle
 600 00f8 00806640 		.word	1080459264
 601 00fc 0000C040 		.word	1086324736
 602 0100 00807640 		.word	1081507840
 603 0104 00000000 		.word	abs_pid
 604 0108 00000000 		.word	motor_pid
 605 010c 00000000 		.word	moto_chassis
 606 0110 00000000 		.word	hcan1
 607              		.cfi_endproc
 608              	.LFE135:
 610              		.section	.text.Rel_angle_PID_test_loop,"ax",%progbits
 611              		.align	1
 612              		.global	Rel_angle_PID_test_loop
 613              		.syntax unified
 614              		.thumb
 615              		.thumb_func
 617              	Rel_angle_PID_test_loop:
 618              	.LVL37:
 619              	.LFB136:
 103:Core/Src/pid_control_tuning.c **** 
 104:Core/Src/pid_control_tuning.c **** //位置环PID效果测试
 105:Core/Src/pid_control_tuning.c **** void Rel_angle_PID_test_loop(int motor_ID)
 106:Core/Src/pid_control_tuning.c **** {
 620              		.loc 1 106 1 is_stmt 1 view -0
 621              		.cfi_startproc
 622              		@ args = 0, pretend = 0, frame = 0
 623              		@ frame_needed = 0, uses_anonymous_args = 0
 624              		.loc 1 106 1 is_stmt 0 view .LVU150
 625 0000 2DE9F041 		push	{r4, r5, r6, r7, r8, lr}
 626              	.LCFI11:
 627              		.cfi_def_cfa_offset 24
 628              		.cfi_offset 4, -24
 629              		.cfi_offset 5, -20
 630              		.cfi_offset 6, -16
 631              		.cfi_offset 7, -12
 632              		.cfi_offset 8, -8
ARM GAS  /tmp/cct35zmn.s 			page 14


 633              		.cfi_offset 14, -4
 634 0004 82B0     		sub	sp, sp, #8
 635              	.LCFI12:
 636              		.cfi_def_cfa_offset 32
 637 0006 0446     		mov	r4, r0
 107:Core/Src/pid_control_tuning.c ****   angle_pid[motor_ID].target = 7000;
 638              		.loc 1 107 3 is_stmt 1 view .LVU151
 639              		.loc 1 107 30 is_stmt 0 view .LVU152
 640 0008 6426     		movs	r6, #100
 641 000a 00FB06F6 		mul	r6, r0, r6
 642 000e 274D     		ldr	r5, .L25
 643 0010 3544     		add	r5, r5, r6
 644 0012 274B     		ldr	r3, .L25+4
 645 0014 6B60     		str	r3, [r5, #4]	@ float
 108:Core/Src/pid_control_tuning.c ****   angle_pid[motor_ID].f_cal_pid(&angle_pid[motor_ID], moto_chassis[motor_ID].angle, 8192);
 646              		.loc 1 108 3 is_stmt 1 view .LVU153
 647              		.loc 1 108 22 is_stmt 0 view .LVU154
 648 0016 2A6E     		ldr	r2, [r5, #96]
 649              		.loc 1 108 77 view .LVU155
 650 0018 264F     		ldr	r7, .L25+8
 651 001a 00EB4003 		add	r3, r0, r0, lsl #1
 652 001e 4FEA0318 		lsl	r8, r3, #4
 653 0022 07EB0313 		add	r3, r7, r3, lsl #4
 654 0026 9B89     		ldrh	r3, [r3, #12]
 655 0028 00EE103A 		vmov	s0, r3	@ int
 656              		.loc 1 108 3 view .LVU156
 657 002c 4FF40051 		mov	r1, #8192
 658 0030 B8EE400A 		vcvt.f32.u32	s0, s0
 659 0034 2846     		mov	r0, r5
 660              	.LVL38:
 661              		.loc 1 108 3 view .LVU157
 662 0036 9047     		blx	r2
 663              	.LVL39:
 109:Core/Src/pid_control_tuning.c ****   //printf("%d\n", (int)angle_pid.output);
 110:Core/Src/pid_control_tuning.c **** 
 111:Core/Src/pid_control_tuning.c ****   motor_pid[motor_ID].target = angle_pid[motor_ID].output; 																							
 664              		.loc 1 111 3 is_stmt 1 view .LVU158
 665              		.loc 1 111 51 is_stmt 0 view .LVU159
 666 0038 2B6B     		ldr	r3, [r5, #48]	@ float
 667              		.loc 1 111 30 view .LVU160
 668 003a 1F48     		ldr	r0, .L25+12
 669 003c 3044     		add	r0, r0, r6
 670 003e 4360     		str	r3, [r0, #4]	@ float
 112:Core/Src/pid_control_tuning.c ****   motor_pid[motor_ID].f_cal_pid(&motor_pid[motor_ID],moto_chassis[motor_ID].speed_rpm, 0);
 671              		.loc 1 112 3 is_stmt 1 view .LVU161
 672              		.loc 1 112 22 is_stmt 0 view .LVU162
 673 0040 036E     		ldr	r3, [r0, #96]
 674              		.loc 1 112 76 view .LVU163
 675 0042 37F90820 		ldrsh	r2, [r7, r8]
 676 0046 00EE102A 		vmov	s0, r2	@ int
 677              		.loc 1 112 3 view .LVU164
 678 004a 0021     		movs	r1, #0
 679 004c B8EEC00A 		vcvt.f32.s32	s0, s0
 680 0050 9847     		blx	r3
 681              	.LVL40:
 113:Core/Src/pid_control_tuning.c **** 
 114:Core/Src/pid_control_tuning.c ****   if(motor_ID == 0) set_moto_current(&hcan1, motor_pid[motor_ID].output, 0, 0, 0);
ARM GAS  /tmp/cct35zmn.s 			page 15


 682              		.loc 1 114 3 is_stmt 1 view .LVU165
 683              		.loc 1 114 5 is_stmt 0 view .LVU166
 684 0052 3CB1     		cbz	r4, .L23
 685              	.L20:
 115:Core/Src/pid_control_tuning.c ****   if(motor_ID == 1) set_moto_current(&hcan1, 0, motor_pid[motor_ID].output, 0, 0);
 686              		.loc 1 115 3 is_stmt 1 view .LVU167
 687              		.loc 1 115 5 is_stmt 0 view .LVU168
 688 0054 012C     		cmp	r4, #1
 689 0056 17D0     		beq	.L24
 690              	.L21:
 116:Core/Src/pid_control_tuning.c ****   //set_moto_current(&hcan1, 0, 0, 0, 0);
 117:Core/Src/pid_control_tuning.c ****   //printf("%d\n", moto_chassis[0].speed_rpm);
 118:Core/Src/pid_control_tuning.c ****   //printf("%d\n", moto_chassis[0].total_angle);
 119:Core/Src/pid_control_tuning.c ****   /**printf("%f, ", (float)j);*/
 120:Core/Src/pid_control_tuning.c ****   HAL_Delay(1);
 691              		.loc 1 120 3 is_stmt 1 view .LVU169
 692 0058 0120     		movs	r0, #1
 693 005a FFF7FEFF 		bl	HAL_Delay
 694              	.LVL41:
 121:Core/Src/pid_control_tuning.c ****   /**printf("%d, %d, %d, %d, %f, %f, %d\n", */
 122:Core/Src/pid_control_tuning.c ****   /**                  speed_set, moto_chassis[motor_ID].angle, */
 123:Core/Src/pid_control_tuning.c ****   /**                  (int)motor_pid[motor_ID].output, */
 124:Core/Src/pid_control_tuning.c ****   /**                  (int)motor_pid[motor_ID].iout, */
 125:Core/Src/pid_control_tuning.c ****   /**                  angle_pid[motor_ID].output, */
 126:Core/Src/pid_control_tuning.c ****   /**                  IMU_Angle[motor_ID]);*/
 127:Core/Src/pid_control_tuning.c **** }
 695              		.loc 1 127 1 is_stmt 0 view .LVU170
 696 005e 02B0     		add	sp, sp, #8
 697              	.LCFI13:
 698              		.cfi_remember_state
 699              		.cfi_def_cfa_offset 24
 700              		@ sp needed
 701 0060 BDE8F081 		pop	{r4, r5, r6, r7, r8, pc}
 702              	.LVL42:
 703              	.L23:
 704              	.LCFI14:
 705              		.cfi_restore_state
 114:Core/Src/pid_control_tuning.c ****   if(motor_ID == 1) set_moto_current(&hcan1, 0, motor_pid[motor_ID].output, 0, 0);
 706              		.loc 1 114 21 is_stmt 1 discriminator 1 view .LVU171
 114:Core/Src/pid_control_tuning.c ****   if(motor_ID == 1) set_moto_current(&hcan1, 0, motor_pid[motor_ID].output, 0, 0);
 707              		.loc 1 114 65 is_stmt 0 discriminator 1 view .LVU172
 708 0064 144B     		ldr	r3, .L25+12
 709 0066 6422     		movs	r2, #100
 710 0068 02FB0433 		mla	r3, r2, r4, r3
 711 006c D3ED0C7A 		vldr.32	s15, [r3, #48]
 114:Core/Src/pid_control_tuning.c ****   if(motor_ID == 1) set_moto_current(&hcan1, 0, motor_pid[motor_ID].output, 0, 0);
 712              		.loc 1 114 21 discriminator 1 view .LVU173
 713 0070 FDEEE77A 		vcvt.s32.f32	s15, s15
 714 0074 0022     		movs	r2, #0
 715 0076 0092     		str	r2, [sp]
 716 0078 1346     		mov	r3, r2
 717 007a 17EE901A 		vmov	r1, s15	@ int
 718 007e 09B2     		sxth	r1, r1
 719 0080 0E48     		ldr	r0, .L25+16
 720 0082 FFF7FEFF 		bl	set_moto_current
 721              	.LVL43:
 722 0086 E5E7     		b	.L20
ARM GAS  /tmp/cct35zmn.s 			page 16


 723              	.L24:
 115:Core/Src/pid_control_tuning.c ****   //set_moto_current(&hcan1, 0, 0, 0, 0);
 724              		.loc 1 115 21 is_stmt 1 discriminator 1 view .LVU174
 115:Core/Src/pid_control_tuning.c ****   //set_moto_current(&hcan1, 0, 0, 0, 0);
 725              		.loc 1 115 68 is_stmt 0 discriminator 1 view .LVU175
 726 0088 0B4B     		ldr	r3, .L25+12
 727 008a 6422     		movs	r2, #100
 728 008c 02FB0433 		mla	r3, r2, r4, r3
 729 0090 D3ED0C7A 		vldr.32	s15, [r3, #48]
 115:Core/Src/pid_control_tuning.c ****   //set_moto_current(&hcan1, 0, 0, 0, 0);
 730              		.loc 1 115 21 discriminator 1 view .LVU176
 731 0094 FDEEE77A 		vcvt.s32.f32	s15, s15
 732 0098 0021     		movs	r1, #0
 733 009a 0091     		str	r1, [sp]
 734 009c 0B46     		mov	r3, r1
 735 009e 17EE902A 		vmov	r2, s15	@ int
 736 00a2 12B2     		sxth	r2, r2
 737 00a4 0548     		ldr	r0, .L25+16
 738 00a6 FFF7FEFF 		bl	set_moto_current
 739              	.LVL44:
 740 00aa D5E7     		b	.L21
 741              	.L26:
 742              		.align	2
 743              	.L25:
 744 00ac 00000000 		.word	angle_pid
 745 00b0 00C0DA45 		.word	1171963904
 746 00b4 00000000 		.word	moto_chassis
 747 00b8 00000000 		.word	motor_pid
 748 00bc 00000000 		.word	hcan1
 749              		.cfi_endproc
 750              	.LFE136:
 752              		.section	.text.speed_loop_PID_tuning,"ax",%progbits
 753              		.align	1
 754              		.global	speed_loop_PID_tuning
 755              		.syntax unified
 756              		.thumb
 757              		.thumb_func
 759              	speed_loop_PID_tuning:
 760              	.LVL45:
 761              	.LFB137:
 128:Core/Src/pid_control_tuning.c **** 
 129:Core/Src/pid_control_tuning.c **** //速度环科学调参（编码器角速度）
 130:Core/Src/pid_control_tuning.c **** void speed_loop_PID_tuning(int motor_ID)
 131:Core/Src/pid_control_tuning.c **** {
 762              		.loc 1 131 1 is_stmt 1 view -0
 763              		.cfi_startproc
 764              		@ args = 0, pretend = 0, frame = 0
 765              		@ frame_needed = 0, uses_anonymous_args = 0
 766              		.loc 1 131 1 is_stmt 0 view .LVU178
 767 0000 10B5     		push	{r4, lr}
 768              	.LCFI15:
 769              		.cfi_def_cfa_offset 8
 770              		.cfi_offset 4, -8
 771              		.cfi_offset 14, -4
 772 0002 82B0     		sub	sp, sp, #8
 773              	.LCFI16:
 774              		.cfi_def_cfa_offset 16
ARM GAS  /tmp/cct35zmn.s 			page 17


 775 0004 0446     		mov	r4, r0
 132:Core/Src/pid_control_tuning.c ****   speed = moto_chassis[motor_ID].speed_rpm;
 776              		.loc 1 132 3 is_stmt 1 view .LVU179
 777              		.loc 1 132 33 is_stmt 0 view .LVU180
 778 0006 00EB4003 		add	r3, r0, r0, lsl #1
 779 000a 1B01     		lsls	r3, r3, #4
 780 000c 194A     		ldr	r2, .L36
 781 000e D25E     		ldrsh	r2, [r2, r3]
 782              		.loc 1 132 9 view .LVU181
 783 0010 194B     		ldr	r3, .L36+4
 784 0012 1A60     		str	r2, [r3]
 133:Core/Src/pid_control_tuning.c ****   time++;
 785              		.loc 1 133 3 is_stmt 1 view .LVU182
 786              		.loc 1 133 7 is_stmt 0 view .LVU183
 787 0014 194A     		ldr	r2, .L36+8
 788 0016 1368     		ldr	r3, [r2]
 789 0018 0133     		adds	r3, r3, #1
 790 001a 1360     		str	r3, [r2]
 134:Core/Src/pid_control_tuning.c ****   if(i <= 400) current = 0;
 791              		.loc 1 134 3 is_stmt 1 view .LVU184
 792              		.loc 1 134 8 is_stmt 0 view .LVU185
 793 001c 184B     		ldr	r3, .L36+12
 794 001e 1B68     		ldr	r3, [r3]
 795              		.loc 1 134 5 view .LVU186
 796 0020 B3F5C87F 		cmp	r3, #400
 797 0024 0DDC     		bgt	.L28
 798              		.loc 1 134 16 is_stmt 1 discriminator 1 view .LVU187
 799              		.loc 1 134 24 is_stmt 0 discriminator 1 view .LVU188
 800 0026 174A     		ldr	r2, .L36+16
 801 0028 0021     		movs	r1, #0
 802 002a 1160     		str	r1, [r2]
 803              	.L29:
 135:Core/Src/pid_control_tuning.c ****   else current = 1500;
 136:Core/Src/pid_control_tuning.c **** 
 137:Core/Src/pid_control_tuning.c ****   if(i >= 800) i = 0;
 804              		.loc 1 137 3 is_stmt 1 view .LVU189
 805              		.loc 1 137 5 is_stmt 0 view .LVU190
 806 002c B3F5487F 		cmp	r3, #800
 807 0030 02DB     		blt	.L30
 808              		.loc 1 137 16 is_stmt 1 discriminator 1 view .LVU191
 809              		.loc 1 137 18 is_stmt 0 discriminator 1 view .LVU192
 810 0032 134B     		ldr	r3, .L36+12
 811 0034 0022     		movs	r2, #0
 812 0036 1A60     		str	r2, [r3]
 813              	.L30:
 138:Core/Src/pid_control_tuning.c **** 
 139:Core/Src/pid_control_tuning.c ****   /**printf("%f, ", (float)j);*/
 140:Core/Src/pid_control_tuning.c ****   /**printf("%d, %d\n", current, speed);*/
 141:Core/Src/pid_control_tuning.c ****   if(motor_ID == 0) set_moto_current(&hcan1, current, 0, 0, 0);
 814              		.loc 1 141 3 is_stmt 1 view .LVU193
 815              		.loc 1 141 5 is_stmt 0 view .LVU194
 816 0038 44B1     		cbz	r4, .L34
 817              	.LVL46:
 818              	.L31:
 142:Core/Src/pid_control_tuning.c ****   if(motor_ID == 1) set_moto_current(&hcan1, 0, current, 0, 0);
 819              		.loc 1 142 3 is_stmt 1 view .LVU195
 820              		.loc 1 142 5 is_stmt 0 view .LVU196
ARM GAS  /tmp/cct35zmn.s 			page 18


 821 003a 012C     		cmp	r4, #1
 822 003c 10D0     		beq	.L35
 823              	.L27:
 143:Core/Src/pid_control_tuning.c **** }
 824              		.loc 1 143 1 view .LVU197
 825 003e 02B0     		add	sp, sp, #8
 826              	.LCFI17:
 827              		.cfi_remember_state
 828              		.cfi_def_cfa_offset 8
 829              		@ sp needed
 830 0040 10BD     		pop	{r4, pc}
 831              	.LVL47:
 832              	.L28:
 833              	.LCFI18:
 834              		.cfi_restore_state
 135:Core/Src/pid_control_tuning.c **** 
 835              		.loc 1 135 8 is_stmt 1 view .LVU198
 135:Core/Src/pid_control_tuning.c **** 
 836              		.loc 1 135 16 is_stmt 0 view .LVU199
 837 0042 104A     		ldr	r2, .L36+16
 838 0044 40F2DC51 		movw	r1, #1500
 839 0048 1160     		str	r1, [r2]
 840 004a EFE7     		b	.L29
 841              	.L34:
 141:Core/Src/pid_control_tuning.c ****   if(motor_ID == 1) set_moto_current(&hcan1, 0, current, 0, 0);
 842              		.loc 1 141 21 is_stmt 1 discriminator 1 view .LVU200
 843 004c 0022     		movs	r2, #0
 844 004e 0092     		str	r2, [sp]
 845 0050 1346     		mov	r3, r2
 846 0052 0C49     		ldr	r1, .L36+16
 847 0054 B1F90010 		ldrsh	r1, [r1]
 848 0058 0B48     		ldr	r0, .L36+20
 849              	.LVL48:
 141:Core/Src/pid_control_tuning.c ****   if(motor_ID == 1) set_moto_current(&hcan1, 0, current, 0, 0);
 850              		.loc 1 141 21 is_stmt 0 discriminator 1 view .LVU201
 851 005a FFF7FEFF 		bl	set_moto_current
 852              	.LVL49:
 853 005e ECE7     		b	.L31
 854              	.L35:
 142:Core/Src/pid_control_tuning.c **** }
 855              		.loc 1 142 21 is_stmt 1 discriminator 1 view .LVU202
 856 0060 0021     		movs	r1, #0
 857 0062 0091     		str	r1, [sp]
 858 0064 0B46     		mov	r3, r1
 859 0066 074A     		ldr	r2, .L36+16
 860 0068 B2F90020 		ldrsh	r2, [r2]
 861 006c 0648     		ldr	r0, .L36+20
 862 006e FFF7FEFF 		bl	set_moto_current
 863              	.LVL50:
 864              		.loc 1 143 1 is_stmt 0 view .LVU203
 865 0072 E4E7     		b	.L27
 866              	.L37:
 867              		.align	2
 868              	.L36:
 869 0074 00000000 		.word	moto_chassis
 870 0078 00000000 		.word	speed
 871 007c 00000000 		.word	time
ARM GAS  /tmp/cct35zmn.s 			page 19


 872 0080 00000000 		.word	i
 873 0084 00000000 		.word	current
 874 0088 00000000 		.word	hcan1
 875              		.cfi_endproc
 876              	.LFE137:
 878              		.section	.text.Rel_angleloop_PID_tuning,"ax",%progbits
 879              		.align	1
 880              		.global	Rel_angleloop_PID_tuning
 881              		.syntax unified
 882              		.thumb
 883              		.thumb_func
 885              	Rel_angleloop_PID_tuning:
 886              	.LVL51:
 887              	.LFB138:
 144:Core/Src/pid_control_tuning.c **** 
 145:Core/Src/pid_control_tuning.c **** //编码器位置环科学调参
 146:Core/Src/pid_control_tuning.c **** void Rel_angleloop_PID_tuning(int motor_ID)
 147:Core/Src/pid_control_tuning.c **** {
 888              		.loc 1 147 1 is_stmt 1 view -0
 889              		.cfi_startproc
 890              		@ args = 0, pretend = 0, frame = 0
 891              		@ frame_needed = 0, uses_anonymous_args = 0
 892              		.loc 1 147 1 is_stmt 0 view .LVU205
 893 0000 10B5     		push	{r4, lr}
 894              	.LCFI19:
 895              		.cfi_def_cfa_offset 8
 896              		.cfi_offset 4, -8
 897              		.cfi_offset 14, -4
 898 0002 82B0     		sub	sp, sp, #8
 899              	.LCFI20:
 900              		.cfi_def_cfa_offset 16
 901 0004 0446     		mov	r4, r0
 148:Core/Src/pid_control_tuning.c ****   if(i <= 100) speed_set = 0;
 902              		.loc 1 148 3 is_stmt 1 view .LVU206
 903              		.loc 1 148 8 is_stmt 0 view .LVU207
 904 0006 304B     		ldr	r3, .L48
 905 0008 1B68     		ldr	r3, [r3]
 906              		.loc 1 148 5 view .LVU208
 907 000a 642B     		cmp	r3, #100
 908 000c 25DC     		bgt	.L39
 909              		.loc 1 148 16 is_stmt 1 discriminator 1 view .LVU209
 910              		.loc 1 148 26 is_stmt 0 discriminator 1 view .LVU210
 911 000e 2F4A     		ldr	r2, .L48+4
 912 0010 0021     		movs	r1, #0
 913 0012 1160     		str	r1, [r2]
 914              	.L40:
 149:Core/Src/pid_control_tuning.c ****   else if(i >100 && i<=1100) speed_set = -15;
 150:Core/Src/pid_control_tuning.c ****   else if(i >1100 && i<=2100) speed_set = 15;
 151:Core/Src/pid_control_tuning.c ****   if(i > 2100) i = 0;
 915              		.loc 1 151 3 is_stmt 1 view .LVU211
 916              		.loc 1 151 5 is_stmt 0 view .LVU212
 917 0014 40F63402 		movw	r2, #2100
 918 0018 9342     		cmp	r3, r2
 919 001a 02DD     		ble	.L42
 920              		.loc 1 151 16 is_stmt 1 discriminator 1 view .LVU213
 921              		.loc 1 151 18 is_stmt 0 discriminator 1 view .LVU214
 922 001c 2A4B     		ldr	r3, .L48
ARM GAS  /tmp/cct35zmn.s 			page 20


 923 001e 0022     		movs	r2, #0
 924 0020 1A60     		str	r2, [r3]
 925              	.L42:
 152:Core/Src/pid_control_tuning.c ****   //speed_set = 25;
 153:Core/Src/pid_control_tuning.c ****   
 154:Core/Src/pid_control_tuning.c ****   motor_pid[motor_ID].target = speed_set; 																							
 926              		.loc 1 154 3 is_stmt 1 view .LVU215
 927              		.loc 1 154 30 is_stmt 0 view .LVU216
 928 0022 2B48     		ldr	r0, .L48+8
 929              	.LVL52:
 930              		.loc 1 154 30 view .LVU217
 931 0024 6423     		movs	r3, #100
 932 0026 03FB0400 		mla	r0, r3, r4, r0
 933 002a 284B     		ldr	r3, .L48+4
 934 002c D3ED007A 		vldr.32	s15, [r3]	@ int
 935 0030 F8EEE77A 		vcvt.f32.s32	s15, s15
 936 0034 C0ED017A 		vstr.32	s15, [r0, #4]
 155:Core/Src/pid_control_tuning.c ****   motor_pid[motor_ID].f_cal_pid(&motor_pid[motor_ID], moto_chassis[motor_ID].speed_rpm, 0);
 937              		.loc 1 155 3 is_stmt 1 view .LVU218
 938              		.loc 1 155 22 is_stmt 0 view .LVU219
 939 0038 026E     		ldr	r2, [r0, #96]
 940              		.loc 1 155 77 view .LVU220
 941 003a 04EB4403 		add	r3, r4, r4, lsl #1
 942 003e 1B01     		lsls	r3, r3, #4
 943 0040 2449     		ldr	r1, .L48+12
 944 0042 CB5E     		ldrsh	r3, [r1, r3]
 945 0044 00EE103A 		vmov	s0, r3	@ int
 946              		.loc 1 155 3 view .LVU221
 947 0048 0021     		movs	r1, #0
 948 004a B8EEC00A 		vcvt.f32.s32	s0, s0
 949 004e 9047     		blx	r2
 950              	.LVL53:
 156:Core/Src/pid_control_tuning.c ****   if(motor_ID == 0) set_moto_current(&hcan1, motor_pid[motor_ID].output, 0, 0, 0);
 951              		.loc 1 156 3 is_stmt 1 view .LVU222
 952              		.loc 1 156 5 is_stmt 0 view .LVU223
 953 0050 B4B1     		cbz	r4, .L46
 954              	.L43:
 157:Core/Src/pid_control_tuning.c ****   if(motor_ID == 1) set_moto_current(&hcan1, 0, motor_pid[motor_ID].output, 0, 0);
 955              		.loc 1 157 3 is_stmt 1 view .LVU224
 956              		.loc 1 157 5 is_stmt 0 view .LVU225
 957 0052 012C     		cmp	r4, #1
 958 0054 26D0     		beq	.L47
 959              	.L38:
 158:Core/Src/pid_control_tuning.c ****   //set_moto_current(&hcan1, 0, 0, 0, 0);
 159:Core/Src/pid_control_tuning.c ****   //printf("%d\n", moto_chassis[0].speed_rpm);
 160:Core/Src/pid_control_tuning.c ****   //printf("%d\n", moto_chassis[0].total_angle);
 161:Core/Src/pid_control_tuning.c ****   /**printf("%f, ", (float)j);*/
 162:Core/Src/pid_control_tuning.c ****   /**printf("%d, %d\n", speed_set, moto_chassis[motor_ID].total_angle);*/
 163:Core/Src/pid_control_tuning.c **** }
 960              		.loc 1 163 1 view .LVU226
 961 0056 02B0     		add	sp, sp, #8
 962              	.LCFI21:
 963              		.cfi_remember_state
 964              		.cfi_def_cfa_offset 8
 965              		@ sp needed
 966 0058 10BD     		pop	{r4, pc}
 967              	.LVL54:
ARM GAS  /tmp/cct35zmn.s 			page 21


 968              	.L39:
 969              	.LCFI22:
 970              		.cfi_restore_state
 149:Core/Src/pid_control_tuning.c ****   else if(i >1100 && i<=2100) speed_set = 15;
 971              		.loc 1 149 8 is_stmt 1 view .LVU227
 149:Core/Src/pid_control_tuning.c ****   else if(i >1100 && i<=2100) speed_set = 15;
 972              		.loc 1 149 18 is_stmt 0 view .LVU228
 973 005a A3F16502 		sub	r2, r3, #101
 149:Core/Src/pid_control_tuning.c ****   else if(i >1100 && i<=2100) speed_set = 15;
 974              		.loc 1 149 10 view .LVU229
 975 005e B2F57A7F 		cmp	r2, #1000
 976 0062 04D2     		bcs	.L41
 149:Core/Src/pid_control_tuning.c ****   else if(i >1100 && i<=2100) speed_set = 15;
 977              		.loc 1 149 30 is_stmt 1 discriminator 1 view .LVU230
 149:Core/Src/pid_control_tuning.c ****   else if(i >1100 && i<=2100) speed_set = 15;
 978              		.loc 1 149 40 is_stmt 0 discriminator 1 view .LVU231
 979 0064 194A     		ldr	r2, .L48+4
 980 0066 6FF00E01 		mvn	r1, #14
 981 006a 1160     		str	r1, [r2]
 982 006c D2E7     		b	.L40
 983              	.L41:
 150:Core/Src/pid_control_tuning.c ****   if(i > 2100) i = 0;
 984              		.loc 1 150 8 is_stmt 1 view .LVU232
 150:Core/Src/pid_control_tuning.c ****   if(i > 2100) i = 0;
 985              		.loc 1 150 19 is_stmt 0 view .LVU233
 986 006e A3F24D42 		subw	r2, r3, #1101
 150:Core/Src/pid_control_tuning.c ****   if(i > 2100) i = 0;
 987              		.loc 1 150 10 view .LVU234
 988 0072 B2F57A7F 		cmp	r2, #1000
 989 0076 CDD2     		bcs	.L40
 150:Core/Src/pid_control_tuning.c ****   if(i > 2100) i = 0;
 990              		.loc 1 150 31 is_stmt 1 discriminator 1 view .LVU235
 150:Core/Src/pid_control_tuning.c ****   if(i > 2100) i = 0;
 991              		.loc 1 150 41 is_stmt 0 discriminator 1 view .LVU236
 992 0078 144A     		ldr	r2, .L48+4
 993 007a 0F21     		movs	r1, #15
 994 007c 1160     		str	r1, [r2]
 995 007e C9E7     		b	.L40
 996              	.LVL55:
 997              	.L46:
 156:Core/Src/pid_control_tuning.c ****   if(motor_ID == 1) set_moto_current(&hcan1, 0, motor_pid[motor_ID].output, 0, 0);
 998              		.loc 1 156 21 is_stmt 1 discriminator 1 view .LVU237
 156:Core/Src/pid_control_tuning.c ****   if(motor_ID == 1) set_moto_current(&hcan1, 0, motor_pid[motor_ID].output, 0, 0);
 999              		.loc 1 156 65 is_stmt 0 discriminator 1 view .LVU238
 1000 0080 134B     		ldr	r3, .L48+8
 1001 0082 6422     		movs	r2, #100
 1002 0084 02FB0433 		mla	r3, r2, r4, r3
 1003 0088 D3ED0C7A 		vldr.32	s15, [r3, #48]
 156:Core/Src/pid_control_tuning.c ****   if(motor_ID == 1) set_moto_current(&hcan1, 0, motor_pid[motor_ID].output, 0, 0);
 1004              		.loc 1 156 21 discriminator 1 view .LVU239
 1005 008c FDEEE77A 		vcvt.s32.f32	s15, s15
 1006 0090 0022     		movs	r2, #0
 1007 0092 0092     		str	r2, [sp]
 1008 0094 1346     		mov	r3, r2
 1009 0096 17EE901A 		vmov	r1, s15	@ int
 1010 009a 09B2     		sxth	r1, r1
 1011 009c 0E48     		ldr	r0, .L48+16
ARM GAS  /tmp/cct35zmn.s 			page 22


 1012 009e FFF7FEFF 		bl	set_moto_current
 1013              	.LVL56:
 1014 00a2 D6E7     		b	.L43
 1015              	.L47:
 157:Core/Src/pid_control_tuning.c ****   //set_moto_current(&hcan1, 0, 0, 0, 0);
 1016              		.loc 1 157 21 is_stmt 1 discriminator 1 view .LVU240
 157:Core/Src/pid_control_tuning.c ****   //set_moto_current(&hcan1, 0, 0, 0, 0);
 1017              		.loc 1 157 68 is_stmt 0 discriminator 1 view .LVU241
 1018 00a4 0A4B     		ldr	r3, .L48+8
 1019 00a6 6422     		movs	r2, #100
 1020 00a8 02FB0433 		mla	r3, r2, r4, r3
 1021 00ac D3ED0C7A 		vldr.32	s15, [r3, #48]
 157:Core/Src/pid_control_tuning.c ****   //set_moto_current(&hcan1, 0, 0, 0, 0);
 1022              		.loc 1 157 21 discriminator 1 view .LVU242
 1023 00b0 FDEEE77A 		vcvt.s32.f32	s15, s15
 1024 00b4 0021     		movs	r1, #0
 1025 00b6 0091     		str	r1, [sp]
 1026 00b8 0B46     		mov	r3, r1
 1027 00ba 17EE902A 		vmov	r2, s15	@ int
 1028 00be 12B2     		sxth	r2, r2
 1029 00c0 0548     		ldr	r0, .L48+16
 1030 00c2 FFF7FEFF 		bl	set_moto_current
 1031              	.LVL57:
 1032              		.loc 1 163 1 view .LVU243
 1033 00c6 C6E7     		b	.L38
 1034              	.L49:
 1035              		.align	2
 1036              	.L48:
 1037 00c8 00000000 		.word	i
 1038 00cc 00000000 		.word	speed_set
 1039 00d0 00000000 		.word	motor_pid
 1040 00d4 00000000 		.word	moto_chassis
 1041 00d8 00000000 		.word	hcan1
 1042              		.cfi_endproc
 1043              	.LFE138:
 1045              		.section	.text.Abs_anglelop_PID_tuning,"ax",%progbits
 1046              		.align	1
 1047              		.global	Abs_anglelop_PID_tuning
 1048              		.syntax unified
 1049              		.thumb
 1050              		.thumb_func
 1052              	Abs_anglelop_PID_tuning:
 1053              	.LVL58:
 1054              	.LFB139:
 164:Core/Src/pid_control_tuning.c **** 
 165:Core/Src/pid_control_tuning.c **** //陀螺仪位置环科学调参
 166:Core/Src/pid_control_tuning.c **** void Abs_anglelop_PID_tuning(int motor_ID)
 167:Core/Src/pid_control_tuning.c **** {
 1055              		.loc 1 167 1 is_stmt 1 view -0
 1056              		.cfi_startproc
 1057              		@ args = 0, pretend = 0, frame = 0
 1058              		@ frame_needed = 0, uses_anonymous_args = 0
 1059              		.loc 1 167 1 is_stmt 0 view .LVU245
 1060 0000 30B5     		push	{r4, r5, lr}
 1061              	.LCFI23:
 1062              		.cfi_def_cfa_offset 12
 1063              		.cfi_offset 4, -12
ARM GAS  /tmp/cct35zmn.s 			page 23


 1064              		.cfi_offset 5, -8
 1065              		.cfi_offset 14, -4
 1066 0002 83B0     		sub	sp, sp, #12
 1067              	.LCFI24:
 1068              		.cfi_def_cfa_offset 24
 1069 0004 0446     		mov	r4, r0
 168:Core/Src/pid_control_tuning.c ****   //IMU归一化
 169:Core/Src/pid_control_tuning.c ****   ABS_IMU_angle[0] = (int)((IMU_Angle[2]*8192)/360); //yaw
 1070              		.loc 1 169 3 is_stmt 1 view .LVU246
 1071              		.loc 1 169 38 is_stmt 0 view .LVU247
 1072 0006 424B     		ldr	r3, .L60
 1073 0008 93ED027A 		vldr.32	s14, [r3, #8]
 1074              		.loc 1 169 41 view .LVU248
 1075 000c DFED417A 		vldr.32	s15, .L60+4
 1076 0010 27EE277A 		vmul.f32	s14, s14, s15
 1077              		.loc 1 169 47 view .LVU249
 1078 0014 DFED406A 		vldr.32	s13, .L60+8
 1079 0018 C7EE267A 		vdiv.f32	s15, s14, s13
 1080              		.loc 1 169 22 view .LVU250
 1081 001c FDEEE77A 		vcvt.s32.f32	s15, s15
 1082              		.loc 1 169 20 view .LVU251
 1083 0020 3E4D     		ldr	r5, .L60+12
 1084 0022 17EE902A 		vmov	r2, s15	@ int
 1085 0026 2A80     		strh	r2, [r5]	@ movhi
 170:Core/Src/pid_control_tuning.c ****   ABS_IMU_angle[1] = (int)(((IMU_Angle[0]+180.0)*8192)/360); //pitch
 1086              		.loc 1 170 3 is_stmt 1 view .LVU252
 1087              		.loc 1 170 39 is_stmt 0 view .LVU253
 1088 0028 1868     		ldr	r0, [r3]	@ float
 1089              	.LVL59:
 1090              		.loc 1 170 39 view .LVU254
 1091 002a FFF7FEFF 		bl	__aeabi_f2d
 1092              	.LVL60:
 1093              		.loc 1 170 42 view .LVU255
 1094 002e 0022     		movs	r2, #0
 1095 0030 3B4B     		ldr	r3, .L60+16
 1096 0032 FFF7FEFF 		bl	__aeabi_dadd
 1097              	.LVL61:
 1098              		.loc 1 170 49 view .LVU256
 1099 0036 0022     		movs	r2, #0
 1100 0038 3A4B     		ldr	r3, .L60+20
 1101 003a FFF7FEFF 		bl	__aeabi_dmul
 1102              	.LVL62:
 1103              		.loc 1 170 55 view .LVU257
 1104 003e 0022     		movs	r2, #0
 1105 0040 394B     		ldr	r3, .L60+24
 1106 0042 FFF7FEFF 		bl	__aeabi_ddiv
 1107              	.LVL63:
 1108              		.loc 1 170 22 view .LVU258
 1109 0046 FFF7FEFF 		bl	__aeabi_d2iz
 1110              	.LVL64:
 1111              		.loc 1 170 20 view .LVU259
 1112 004a 6880     		strh	r0, [r5, #2]	@ movhi
 171:Core/Src/pid_control_tuning.c **** 
 172:Core/Src/pid_control_tuning.c ****   if(i <= 100) speed_set = 0;
 1113              		.loc 1 172 3 is_stmt 1 view .LVU260
 1114              		.loc 1 172 8 is_stmt 0 view .LVU261
 1115 004c 374B     		ldr	r3, .L60+28
ARM GAS  /tmp/cct35zmn.s 			page 24


 1116 004e 1B68     		ldr	r3, [r3]
 1117              		.loc 1 172 5 view .LVU262
 1118 0050 642B     		cmp	r3, #100
 1119 0052 25DC     		bgt	.L51
 1120              		.loc 1 172 16 is_stmt 1 discriminator 1 view .LVU263
 1121              		.loc 1 172 26 is_stmt 0 discriminator 1 view .LVU264
 1122 0054 364A     		ldr	r2, .L60+32
 1123 0056 0021     		movs	r1, #0
 1124 0058 1160     		str	r1, [r2]
 1125              	.L52:
 173:Core/Src/pid_control_tuning.c ****   else if(i >100 && i<=1100) speed_set = -15;
 174:Core/Src/pid_control_tuning.c ****   else if(i >1100 && i<=2100) speed_set = 15;
 175:Core/Src/pid_control_tuning.c ****   if(i > 2100) i = 0;
 1126              		.loc 1 175 3 is_stmt 1 view .LVU265
 1127              		.loc 1 175 5 is_stmt 0 view .LVU266
 1128 005a 40F63402 		movw	r2, #2100
 1129 005e 9342     		cmp	r3, r2
 1130 0060 02DD     		ble	.L54
 1131              		.loc 1 175 16 is_stmt 1 discriminator 1 view .LVU267
 1132              		.loc 1 175 18 is_stmt 0 discriminator 1 view .LVU268
 1133 0062 324B     		ldr	r3, .L60+28
 1134 0064 0022     		movs	r2, #0
 1135 0066 1A60     		str	r2, [r3]
 1136              	.L54:
 176:Core/Src/pid_control_tuning.c ****   //speed_set = 25;
 177:Core/Src/pid_control_tuning.c ****   
 178:Core/Src/pid_control_tuning.c ****   motor_pid[motor_ID].target = speed_set; 																							
 1137              		.loc 1 178 3 is_stmt 1 view .LVU269
 1138              		.loc 1 178 30 is_stmt 0 view .LVU270
 1139 0068 3248     		ldr	r0, .L60+36
 1140 006a 6423     		movs	r3, #100
 1141 006c 03FB0400 		mla	r0, r3, r4, r0
 1142 0070 2F4B     		ldr	r3, .L60+32
 1143 0072 D3ED007A 		vldr.32	s15, [r3]	@ int
 1144 0076 F8EEE77A 		vcvt.f32.s32	s15, s15
 1145 007a C0ED017A 		vstr.32	s15, [r0, #4]
 179:Core/Src/pid_control_tuning.c ****   motor_pid[motor_ID].f_cal_pid(&motor_pid[motor_ID], moto_chassis[motor_ID].speed_rpm, 0);
 1146              		.loc 1 179 3 is_stmt 1 view .LVU271
 1147              		.loc 1 179 22 is_stmt 0 view .LVU272
 1148 007e 026E     		ldr	r2, [r0, #96]
 1149              		.loc 1 179 77 view .LVU273
 1150 0080 04EB4403 		add	r3, r4, r4, lsl #1
 1151 0084 1B01     		lsls	r3, r3, #4
 1152 0086 2C49     		ldr	r1, .L60+40
 1153 0088 CB5E     		ldrsh	r3, [r1, r3]
 1154 008a 00EE103A 		vmov	s0, r3	@ int
 1155              		.loc 1 179 3 view .LVU274
 1156 008e 0021     		movs	r1, #0
 1157 0090 B8EEC00A 		vcvt.f32.s32	s0, s0
 1158 0094 9047     		blx	r2
 1159              	.LVL65:
 180:Core/Src/pid_control_tuning.c ****   if(motor_ID == 0) set_moto_current(&hcan1, motor_pid[motor_ID].output, 0, 0, 0);
 1160              		.loc 1 180 3 is_stmt 1 view .LVU275
 1161              		.loc 1 180 5 is_stmt 0 view .LVU276
 1162 0096 B4B1     		cbz	r4, .L58
 1163              	.L55:
 181:Core/Src/pid_control_tuning.c ****   if(motor_ID == 1) set_moto_current(&hcan1, 0, motor_pid[motor_ID].output, 0, 0);
ARM GAS  /tmp/cct35zmn.s 			page 25


 1164              		.loc 1 181 3 is_stmt 1 view .LVU277
 1165              		.loc 1 181 5 is_stmt 0 view .LVU278
 1166 0098 012C     		cmp	r4, #1
 1167 009a 26D0     		beq	.L59
 1168              	.L50:
 182:Core/Src/pid_control_tuning.c ****   //set_moto_current(&hcan1, 0, 0, 0, 0);
 183:Core/Src/pid_control_tuning.c ****   //printf("%d\n", moto_chassis[0].speed_rpm);
 184:Core/Src/pid_control_tuning.c ****   //printf("%d\n", moto_chassis[0].total_angle);
 185:Core/Src/pid_control_tuning.c ****   /**printf("%f, ", (float)j);*/
 186:Core/Src/pid_control_tuning.c ****   /**printf("%d, %d\n", speed_set, ABS_IMU_angle[motor_ID]);*/
 187:Core/Src/pid_control_tuning.c **** }
 1169              		.loc 1 187 1 view .LVU279
 1170 009c 03B0     		add	sp, sp, #12
 1171              	.LCFI25:
 1172              		.cfi_remember_state
 1173              		.cfi_def_cfa_offset 12
 1174              		@ sp needed
 1175 009e 30BD     		pop	{r4, r5, pc}
 1176              	.LVL66:
 1177              	.L51:
 1178              	.LCFI26:
 1179              		.cfi_restore_state
 173:Core/Src/pid_control_tuning.c ****   else if(i >1100 && i<=2100) speed_set = 15;
 1180              		.loc 1 173 8 is_stmt 1 view .LVU280
 173:Core/Src/pid_control_tuning.c ****   else if(i >1100 && i<=2100) speed_set = 15;
 1181              		.loc 1 173 18 is_stmt 0 view .LVU281
 1182 00a0 A3F16502 		sub	r2, r3, #101
 173:Core/Src/pid_control_tuning.c ****   else if(i >1100 && i<=2100) speed_set = 15;
 1183              		.loc 1 173 10 view .LVU282
 1184 00a4 B2F57A7F 		cmp	r2, #1000
 1185 00a8 04D2     		bcs	.L53
 173:Core/Src/pid_control_tuning.c ****   else if(i >1100 && i<=2100) speed_set = 15;
 1186              		.loc 1 173 30 is_stmt 1 discriminator 1 view .LVU283
 173:Core/Src/pid_control_tuning.c ****   else if(i >1100 && i<=2100) speed_set = 15;
 1187              		.loc 1 173 40 is_stmt 0 discriminator 1 view .LVU284
 1188 00aa 214A     		ldr	r2, .L60+32
 1189 00ac 6FF00E01 		mvn	r1, #14
 1190 00b0 1160     		str	r1, [r2]
 1191 00b2 D2E7     		b	.L52
 1192              	.L53:
 174:Core/Src/pid_control_tuning.c ****   if(i > 2100) i = 0;
 1193              		.loc 1 174 8 is_stmt 1 view .LVU285
 174:Core/Src/pid_control_tuning.c ****   if(i > 2100) i = 0;
 1194              		.loc 1 174 19 is_stmt 0 view .LVU286
 1195 00b4 A3F24D42 		subw	r2, r3, #1101
 174:Core/Src/pid_control_tuning.c ****   if(i > 2100) i = 0;
 1196              		.loc 1 174 10 view .LVU287
 1197 00b8 B2F57A7F 		cmp	r2, #1000
 1198 00bc CDD2     		bcs	.L52
 174:Core/Src/pid_control_tuning.c ****   if(i > 2100) i = 0;
 1199              		.loc 1 174 31 is_stmt 1 discriminator 1 view .LVU288
 174:Core/Src/pid_control_tuning.c ****   if(i > 2100) i = 0;
 1200              		.loc 1 174 41 is_stmt 0 discriminator 1 view .LVU289
 1201 00be 1C4A     		ldr	r2, .L60+32
 1202 00c0 0F21     		movs	r1, #15
 1203 00c2 1160     		str	r1, [r2]
 1204 00c4 C9E7     		b	.L52
ARM GAS  /tmp/cct35zmn.s 			page 26


 1205              	.L58:
 180:Core/Src/pid_control_tuning.c ****   if(motor_ID == 1) set_moto_current(&hcan1, 0, motor_pid[motor_ID].output, 0, 0);
 1206              		.loc 1 180 21 is_stmt 1 discriminator 1 view .LVU290
 180:Core/Src/pid_control_tuning.c ****   if(motor_ID == 1) set_moto_current(&hcan1, 0, motor_pid[motor_ID].output, 0, 0);
 1207              		.loc 1 180 65 is_stmt 0 discriminator 1 view .LVU291
 1208 00c6 1B4B     		ldr	r3, .L60+36
 1209 00c8 6422     		movs	r2, #100
 1210 00ca 02FB0433 		mla	r3, r2, r4, r3
 1211 00ce D3ED0C7A 		vldr.32	s15, [r3, #48]
 180:Core/Src/pid_control_tuning.c ****   if(motor_ID == 1) set_moto_current(&hcan1, 0, motor_pid[motor_ID].output, 0, 0);
 1212              		.loc 1 180 21 discriminator 1 view .LVU292
 1213 00d2 FDEEE77A 		vcvt.s32.f32	s15, s15
 1214 00d6 0022     		movs	r2, #0
 1215 00d8 0092     		str	r2, [sp]
 1216 00da 1346     		mov	r3, r2
 1217 00dc 17EE901A 		vmov	r1, s15	@ int
 1218 00e0 09B2     		sxth	r1, r1
 1219 00e2 1648     		ldr	r0, .L60+44
 1220 00e4 FFF7FEFF 		bl	set_moto_current
 1221              	.LVL67:
 1222 00e8 D6E7     		b	.L55
 1223              	.L59:
 181:Core/Src/pid_control_tuning.c ****   //set_moto_current(&hcan1, 0, 0, 0, 0);
 1224              		.loc 1 181 21 is_stmt 1 discriminator 1 view .LVU293
 181:Core/Src/pid_control_tuning.c ****   //set_moto_current(&hcan1, 0, 0, 0, 0);
 1225              		.loc 1 181 68 is_stmt 0 discriminator 1 view .LVU294
 1226 00ea 124B     		ldr	r3, .L60+36
 1227 00ec 6422     		movs	r2, #100
 1228 00ee 02FB0433 		mla	r3, r2, r4, r3
 1229 00f2 D3ED0C7A 		vldr.32	s15, [r3, #48]
 181:Core/Src/pid_control_tuning.c ****   //set_moto_current(&hcan1, 0, 0, 0, 0);
 1230              		.loc 1 181 21 discriminator 1 view .LVU295
 1231 00f6 FDEEE77A 		vcvt.s32.f32	s15, s15
 1232 00fa 0021     		movs	r1, #0
 1233 00fc 0091     		str	r1, [sp]
 1234 00fe 0B46     		mov	r3, r1
 1235 0100 17EE902A 		vmov	r2, s15	@ int
 1236 0104 12B2     		sxth	r2, r2
 1237 0106 0D48     		ldr	r0, .L60+44
 1238 0108 FFF7FEFF 		bl	set_moto_current
 1239              	.LVL68:
 1240              		.loc 1 187 1 view .LVU296
 1241 010c C6E7     		b	.L50
 1242              	.L61:
 1243 010e 00BF     		.align	2
 1244              	.L60:
 1245 0110 00000000 		.word	IMU_Angle
 1246 0114 00000046 		.word	1174405120
 1247 0118 0000B443 		.word	1135869952
 1248 011c 00000000 		.word	ABS_IMU_angle
 1249 0120 00806640 		.word	1080459264
 1250 0124 0000C040 		.word	1086324736
 1251 0128 00807640 		.word	1081507840
 1252 012c 00000000 		.word	i
 1253 0130 00000000 		.word	speed_set
 1254 0134 00000000 		.word	motor_pid
 1255 0138 00000000 		.word	moto_chassis
ARM GAS  /tmp/cct35zmn.s 			page 27


 1256 013c 00000000 		.word	hcan1
 1257              		.cfi_endproc
 1258              	.LFE139:
 1260              		.global	speed_set
 1261              		.section	.bss.speed_set,"aw",%nobits
 1262              		.align	2
 1265              	speed_set:
 1266 0000 00000000 		.space	4
 1267              		.global	time
 1268              		.section	.bss.time,"aw",%nobits
 1269              		.align	2
 1272              	time:
 1273 0000 00000000 		.space	4
 1274              		.global	speed
 1275              		.section	.bss.speed,"aw",%nobits
 1276              		.align	2
 1279              	speed:
 1280 0000 00000000 		.space	4
 1281              		.global	current
 1282              		.section	.bss.current,"aw",%nobits
 1283              		.align	2
 1286              	current:
 1287 0000 00000000 		.space	4
 1288              		.global	j
 1289              		.section	.bss.j,"aw",%nobits
 1290              		.align	2
 1293              	j:
 1294 0000 00000000 		.space	4
 1295              		.global	i
 1296              		.section	.bss.i,"aw",%nobits
 1297              		.align	2
 1300              	i:
 1301 0000 00000000 		.space	4
 1302              		.global	Gimbal_angle
 1303              		.section	.bss.Gimbal_angle,"aw",%nobits
 1304              		.align	2
 1307              	Gimbal_angle:
 1308 0000 00000000 		.space	4
 1309              		.global	IMU_Angle
 1310              		.section	.bss.IMU_Angle,"aw",%nobits
 1311              		.align	2
 1314              	IMU_Angle:
 1315 0000 00000000 		.space	12
 1315      00000000 
 1315      00000000 
 1316              		.global	IMU_Angle_Raw
 1317              		.section	.bss.IMU_Angle_Raw,"aw",%nobits
 1318              		.align	2
 1321              	IMU_Angle_Raw:
 1322 0000 00000000 		.space	6
 1322      0000
 1323              		.global	ABS_IMU_angle
 1324              		.section	.bss.ABS_IMU_angle,"aw",%nobits
 1325              		.align	2
 1328              	ABS_IMU_angle:
 1329 0000 00000000 		.space	4
 1330              		.global	ABS_Gimbal_angle
ARM GAS  /tmp/cct35zmn.s 			page 28


 1331              		.section	.data.ABS_Gimbal_angle,"aw"
 1332              		.align	2
 1335              	ABS_Gimbal_angle:
 1336 0000 00200046 		.word	1174413312
 1337 0004 0020FD45 		.word	1174216704
 1338              		.global	abs_pid
 1339              		.section	.bss.abs_pid,"aw",%nobits
 1340              		.align	2
 1343              	abs_pid:
 1344 0000 00000000 		.space	200
 1344      00000000 
 1344      00000000 
 1344      00000000 
 1344      00000000 
 1345              		.global	angle_pid
 1346              		.section	.bss.angle_pid,"aw",%nobits
 1347              		.align	2
 1350              	angle_pid:
 1351 0000 00000000 		.space	200
 1351      00000000 
 1351      00000000 
 1351      00000000 
 1351      00000000 
 1352              		.global	motor_pid
 1353              		.section	.bss.motor_pid,"aw",%nobits
 1354              		.align	2
 1357              	motor_pid:
 1358 0000 00000000 		.space	400
 1358      00000000 
 1358      00000000 
 1358      00000000 
 1358      00000000 
 1359              		.text
 1360              	.Letext0:
 1361              		.file 2 "/usr/arm-none-eabi/include/machine/_default_types.h"
 1362              		.file 3 "/usr/arm-none-eabi/include/sys/_stdint.h"
 1363              		.file 4 "Core/Inc/pid.h"
 1364              		.file 5 "Drivers/CMSIS/Device/ST/STM32F4xx/Include/stm32f407xx.h"
 1365              		.file 6 "Drivers/CMSIS/Device/ST/STM32F4xx/Include/stm32f4xx.h"
 1366              		.file 7 "Drivers/STM32F4xx_HAL_Driver/Inc/stm32f4xx_hal_can.h"
 1367              		.file 8 "Core/Inc/mytype.h"
 1368              		.file 9 "Core/Inc/can.h"
 1369              		.file 10 "Core/Inc/bsp_can.h"
 1370              		.file 11 "Core/Inc/pid_control_tuning.h"
 1371              		.file 12 "Drivers/STM32F4xx_HAL_Driver/Inc/stm32f4xx_hal.h"
ARM GAS  /tmp/cct35zmn.s 			page 29


DEFINED SYMBOLS
                            *ABS*:00000000 pid_control_tuning.c
     /tmp/cct35zmn.s:26     .text.Abs_angle_control_loop:00000000 $t
     /tmp/cct35zmn.s:32     .text.Abs_angle_control_loop:00000000 Abs_angle_control_loop
     /tmp/cct35zmn.s:195    .text.Abs_angle_control_loop:000000f8 $d
     /tmp/cct35zmn.s:1314   .bss.IMU_Angle:00000000 IMU_Angle
     /tmp/cct35zmn.s:1328   .bss.ABS_IMU_angle:00000000 ABS_IMU_angle
     /tmp/cct35zmn.s:1343   .bss.abs_pid:00000000 abs_pid
     /tmp/cct35zmn.s:1357   .bss.motor_pid:00000000 motor_pid
     /tmp/cct35zmn.s:1335   .data.ABS_Gimbal_angle:00000000 ABS_Gimbal_angle
     /tmp/cct35zmn.s:211    .text.Rel_angle_control_loop:00000000 $t
     /tmp/cct35zmn.s:217    .text.Rel_angle_control_loop:00000000 Rel_angle_control_loop
     /tmp/cct35zmn.s:410    .text.Rel_angle_control_loop:0000011c $d
     /tmp/cct35zmn.s:1300   .bss.i:00000000 i
     /tmp/cct35zmn.s:1307   .bss.Gimbal_angle:00000000 Gimbal_angle
     /tmp/cct35zmn.s:1350   .bss.angle_pid:00000000 angle_pid
     /tmp/cct35zmn.s:424    .text.Abs_angle_PID_test_loop:00000000 $t
     /tmp/cct35zmn.s:430    .text.Abs_angle_PID_test_loop:00000000 Abs_angle_PID_test_loop
     /tmp/cct35zmn.s:596    .text.Abs_angle_PID_test_loop:000000e8 $d
     /tmp/cct35zmn.s:611    .text.Rel_angle_PID_test_loop:00000000 $t
     /tmp/cct35zmn.s:617    .text.Rel_angle_PID_test_loop:00000000 Rel_angle_PID_test_loop
     /tmp/cct35zmn.s:744    .text.Rel_angle_PID_test_loop:000000ac $d
     /tmp/cct35zmn.s:753    .text.speed_loop_PID_tuning:00000000 $t
     /tmp/cct35zmn.s:759    .text.speed_loop_PID_tuning:00000000 speed_loop_PID_tuning
     /tmp/cct35zmn.s:869    .text.speed_loop_PID_tuning:00000074 $d
     /tmp/cct35zmn.s:1279   .bss.speed:00000000 speed
     /tmp/cct35zmn.s:1272   .bss.time:00000000 time
     /tmp/cct35zmn.s:1286   .bss.current:00000000 current
     /tmp/cct35zmn.s:879    .text.Rel_angleloop_PID_tuning:00000000 $t
     /tmp/cct35zmn.s:885    .text.Rel_angleloop_PID_tuning:00000000 Rel_angleloop_PID_tuning
     /tmp/cct35zmn.s:1037   .text.Rel_angleloop_PID_tuning:000000c8 $d
     /tmp/cct35zmn.s:1265   .bss.speed_set:00000000 speed_set
     /tmp/cct35zmn.s:1046   .text.Abs_anglelop_PID_tuning:00000000 $t
     /tmp/cct35zmn.s:1052   .text.Abs_anglelop_PID_tuning:00000000 Abs_anglelop_PID_tuning
     /tmp/cct35zmn.s:1245   .text.Abs_anglelop_PID_tuning:00000110 $d
     /tmp/cct35zmn.s:1262   .bss.speed_set:00000000 $d
     /tmp/cct35zmn.s:1269   .bss.time:00000000 $d
     /tmp/cct35zmn.s:1276   .bss.speed:00000000 $d
     /tmp/cct35zmn.s:1283   .bss.current:00000000 $d
     /tmp/cct35zmn.s:1293   .bss.j:00000000 j
     /tmp/cct35zmn.s:1290   .bss.j:00000000 $d
     /tmp/cct35zmn.s:1297   .bss.i:00000000 $d
     /tmp/cct35zmn.s:1304   .bss.Gimbal_angle:00000000 $d
     /tmp/cct35zmn.s:1311   .bss.IMU_Angle:00000000 $d
     /tmp/cct35zmn.s:1321   .bss.IMU_Angle_Raw:00000000 IMU_Angle_Raw
     /tmp/cct35zmn.s:1318   .bss.IMU_Angle_Raw:00000000 $d
     /tmp/cct35zmn.s:1325   .bss.ABS_IMU_angle:00000000 $d
     /tmp/cct35zmn.s:1332   .data.ABS_Gimbal_angle:00000000 $d
     /tmp/cct35zmn.s:1340   .bss.abs_pid:00000000 $d
     /tmp/cct35zmn.s:1347   .bss.angle_pid:00000000 $d
     /tmp/cct35zmn.s:1354   .bss.motor_pid:00000000 $d

UNDEFINED SYMBOLS
__aeabi_f2d
__aeabi_dadd
__aeabi_dmul
__aeabi_ddiv
ARM GAS  /tmp/cct35zmn.s 			page 30


__aeabi_d2iz
set_moto_current
HAL_Delay
moto_chassis
hcan1
